; Listing generated by Microsoft (R) Optimizing Compiler Version 19.29.30141.0 

include listing.inc

INCLUDELIB MSVCRTD
INCLUDELIB OLDNAMES

msvcjmc	SEGMENT
__3122E9E1_pch@h DB 01H
__5B9A3852_EquationStringParser@pch DB 01H
__757D417B_braket_group@h DB 01H
__BE7F436D_braket_group@cpp DB 01H
msvcjmc	ENDS
PUBLIC	??0braket_group@@QEAA@H@Z			; braket_group::braket_group
PUBLIC	?getStartIndex@braket_group@@QEBAHXZ		; braket_group::getStartIndex
PUBLIC	?isClosed@braket_group@@QEBA_NXZ		; braket_group::isClosed
PUBLIC	?close@braket_group@@QEAAXXZ			; braket_group::close
PUBLIC	__JustMyCode_Default
EXTRN	_RTC_InitBase:PROC
EXTRN	_RTC_Shutdown:PROC
EXTRN	__CheckForDebuggerJustMyCode:PROC
;	COMDAT pdata
pdata	SEGMENT
$pdata$??0braket_group@@QEAA@H@Z DD imagerel $LN3
	DD	imagerel $LN3+78
	DD	imagerel $unwind$??0braket_group@@QEAA@H@Z
pdata	ENDS
;	COMDAT pdata
pdata	SEGMENT
$pdata$?getStartIndex@braket_group@@QEBAHXZ DD imagerel $LN3
	DD	imagerel $LN3+50
	DD	imagerel $unwind$?getStartIndex@braket_group@@QEBAHXZ
pdata	ENDS
;	COMDAT pdata
pdata	SEGMENT
$pdata$?isClosed@braket_group@@QEBA_NXZ DD imagerel $LN3
	DD	imagerel $LN3+52
	DD	imagerel $unwind$?isClosed@braket_group@@QEBA_NXZ
pdata	ENDS
;	COMDAT pdata
pdata	SEGMENT
$pdata$?close@braket_group@@QEAAXXZ DD imagerel $LN3
	DD	imagerel $LN3+52
	DD	imagerel $unwind$?close@braket_group@@QEAAXXZ
pdata	ENDS
;	COMDAT rtc$TMZ
rtc$TMZ	SEGMENT
_RTC_Shutdown.rtc$TMZ DQ FLAT:_RTC_Shutdown
rtc$TMZ	ENDS
;	COMDAT rtc$IMZ
rtc$IMZ	SEGMENT
_RTC_InitBase.rtc$IMZ DQ FLAT:_RTC_InitBase
rtc$IMZ	ENDS
;	COMDAT xdata
xdata	SEGMENT
$unwind$?close@braket_group@@QEAAXXZ DD 025051301H
	DD	010e2313H
	DD	07007001dH
	DD	05006H
xdata	ENDS
;	COMDAT xdata
xdata	SEGMENT
$unwind$?isClosed@braket_group@@QEBA_NXZ DD 025051301H
	DD	010e2313H
	DD	07007001dH
	DD	05006H
xdata	ENDS
;	COMDAT xdata
xdata	SEGMENT
$unwind$?getStartIndex@braket_group@@QEBAHXZ DD 025051301H
	DD	010e2313H
	DD	07007001dH
	DD	05006H
xdata	ENDS
;	COMDAT xdata
xdata	SEGMENT
$unwind$??0braket_group@@QEAA@H@Z DD 025051701H
	DD	01122317H
	DD	0700b001dH
	DD	0500aH
xdata	ENDS
; Function compile flags: /Odt
;	COMDAT __JustMyCode_Default
_TEXT	SEGMENT
__JustMyCode_Default PROC				; COMDAT
	ret	0
__JustMyCode_Default ENDP
_TEXT	ENDS
; Function compile flags: /Odtp /RTCsu /ZI
; File C:\Users\shtuk\Desktop\Files\EquationStringParser\EquationStringParser\braket_group.cpp
;	COMDAT ?close@braket_group@@QEAAXXZ
_TEXT	SEGMENT
this$ = 224
?close@braket_group@@QEAAXXZ PROC			; braket_group::close, COMDAT

; 20   : 	{

$LN3:
	mov	QWORD PTR [rsp+8], rcx
	push	rbp
	push	rdi
	sub	rsp, 232				; 000000e8H
	lea	rbp, QWORD PTR [rsp+32]
	lea	rcx, OFFSET FLAT:__BE7F436D_braket_group@cpp
	call	__CheckForDebuggerJustMyCode

; 21   : 		closed = true;

	mov	rax, QWORD PTR this$[rbp]
	mov	BYTE PTR [rax+4], 1

; 22   : 	}

	lea	rsp, QWORD PTR [rbp+200]
	pop	rdi
	pop	rbp
	ret	0
?close@braket_group@@QEAAXXZ ENDP			; braket_group::close
_TEXT	ENDS
; Function compile flags: /Odtp /RTCsu /ZI
; File C:\Users\shtuk\Desktop\Files\EquationStringParser\EquationStringParser\braket_group.cpp
;	COMDAT ?isClosed@braket_group@@QEBA_NXZ
_TEXT	SEGMENT
this$ = 224
?isClosed@braket_group@@QEBA_NXZ PROC			; braket_group::isClosed, COMDAT

; 15   : 	{

$LN3:
	mov	QWORD PTR [rsp+8], rcx
	push	rbp
	push	rdi
	sub	rsp, 232				; 000000e8H
	lea	rbp, QWORD PTR [rsp+32]
	lea	rcx, OFFSET FLAT:__BE7F436D_braket_group@cpp
	call	__CheckForDebuggerJustMyCode

; 16   : 		return closed;

	mov	rax, QWORD PTR this$[rbp]
	movzx	eax, BYTE PTR [rax+4]

; 17   : 	}

	lea	rsp, QWORD PTR [rbp+200]
	pop	rdi
	pop	rbp
	ret	0
?isClosed@braket_group@@QEBA_NXZ ENDP			; braket_group::isClosed
_TEXT	ENDS
; Function compile flags: /Odtp /RTCsu /ZI
; File C:\Users\shtuk\Desktop\Files\EquationStringParser\EquationStringParser\braket_group.cpp
;	COMDAT ?getStartIndex@braket_group@@QEBAHXZ
_TEXT	SEGMENT
this$ = 224
?getStartIndex@braket_group@@QEBAHXZ PROC		; braket_group::getStartIndex, COMDAT

; 10   : 	{

$LN3:
	mov	QWORD PTR [rsp+8], rcx
	push	rbp
	push	rdi
	sub	rsp, 232				; 000000e8H
	lea	rbp, QWORD PTR [rsp+32]
	lea	rcx, OFFSET FLAT:__BE7F436D_braket_group@cpp
	call	__CheckForDebuggerJustMyCode

; 11   : 		return startIndex;

	mov	rax, QWORD PTR this$[rbp]
	mov	eax, DWORD PTR [rax]

; 12   : 	}

	lea	rsp, QWORD PTR [rbp+200]
	pop	rdi
	pop	rbp
	ret	0
?getStartIndex@braket_group@@QEBAHXZ ENDP		; braket_group::getStartIndex
_TEXT	ENDS
; Function compile flags: /Odtp /RTCsu /ZI
; File C:\Users\shtuk\Desktop\Files\EquationStringParser\EquationStringParser\braket_group.cpp
;	COMDAT ??0braket_group@@QEAA@H@Z
_TEXT	SEGMENT
this$ = 224
si$ = 232
??0braket_group@@QEAA@H@Z PROC				; braket_group::braket_group, COMDAT

; 6    : 	{

$LN3:
	mov	DWORD PTR [rsp+16], edx
	mov	QWORD PTR [rsp+8], rcx
	push	rbp
	push	rdi
	sub	rsp, 232				; 000000e8H
	lea	rbp, QWORD PTR [rsp+32]
	lea	rcx, OFFSET FLAT:__BE7F436D_braket_group@cpp
	call	__CheckForDebuggerJustMyCode

; 5    : braket_group::braket_group(int si) : startIndex(si), closed(false)

	mov	rax, QWORD PTR this$[rbp]
	mov	ecx, DWORD PTR si$[rbp]
	mov	DWORD PTR [rax], ecx
	mov	rax, QWORD PTR this$[rbp]
	mov	BYTE PTR [rax+4], 0

; 7    : 	}

	mov	rax, QWORD PTR this$[rbp]
	lea	rsp, QWORD PTR [rbp+200]
	pop	rdi
	pop	rbp
	ret	0
??0braket_group@@QEAA@H@Z ENDP				; braket_group::braket_group
_TEXT	ENDS
END
