; Listing generated by Microsoft (R) Optimizing Compiler Version 19.29.30141.0 

include listing.inc

INCLUDELIB MSVCRTD
INCLUDELIB OLDNAMES

PUBLIC	?level@@3HA					; level
_BSS	SEGMENT
?level@@3HA DD	01H DUP (?)				; level
_BSS	ENDS
msvcjmc	SEGMENT
__3122E9E1_pch@h DB 01H
__5B9A3852_EquationStringParser@pch DB 01H
__F54903A0_xatomic@h DB 01H
__E458E21C_xstddef DB 01H
__1347750E_utility DB 01H
__B30C2184_iosfwd DB 01H
__038A2AA6_iterator DB 01H
__74AB0D97_streambuf DB 01H
__C12F3EA4_ostream DB 01H
__A2FF0B9E_istream DB 01H
__324884E2_vector DB 01H
__E80AFA59_expression@h DB 01H
__C90439AA_EquationStringParser@cpp DB 01H
__3F6EDB1A_tree_builder@h DB 01H
__5A687423_token@h DB 01H
__63E15800_op@h DB 01H
__B7987E10_string DB 01H
__845859A3_ios DB 01H
__4CB88277_xlocnum DB 01H
__4495FA24_xiosbase DB 01H
__D23FE460_xlocale DB 01H
__7D708D37_xlocinfo DB 01H
__6AECDA3E_ctype@h DB 01H
__EF0EAF83_xfacet DB 01H
__C34BF88C_memory DB 01H
__62F96EFF_typeinfo DB 01H
__65ADBEC9_vcruntime_typeinfo@h DB 01H
__1B354CA2_system_error DB 01H
__14D0A8C0_atomic DB 01H
__DDB379A0_xthreads@h DB 01H
__93FD7E51_time@h DB 01H
__A4685E82_xcall_once@h DB 01H
__760BB52B_stdexcept DB 01H
__0D019051_xstring DB 01H
__79D216CD_xmemory DB 01H
__7FE5F402_limits DB 01H
__FF458F76_exception DB 01H
__B0A13A33_vcruntime_exception@h DB 01H
__E5D9469F_malloc@h DB 01H
__12269DE6_xutility DB 01H
__589FA321_type_traits DB 01H
__4BE26BFD_wchar@h DB 01H
__72103B05_stat@h DB 01H
__18070508_corecrt_wtime@h DB 01H
__91FC0EDF_corecrt_wio@h DB 01H
__E387ED1C_corecrt_wconio@h DB 01H
__F787F5CD_string@h DB 01H
__5B29309E_corecrt_wstring@h DB 01H
__82377222_corecrt_memory@h DB 01H
__184F7456_corecrt_memcpy_s@h DB 01H
__B5C48800_stdio@h DB 01H
__A7F89B2B_corecrt_wstdio@h DB 01H
__C44F8F6B_corecrt_stdio_config@h DB 01H
__60BC708E_cmath DB 01H
__244AF085_cstdlib DB 01H
__71F46169_stdlib@h DB 01H
__92857972_corecrt_math@h DB 01H
__97D3638F_vcruntime_new@h DB 01H
msvcjmc	ENDS
CONST	SEGMENT
?supportedOps@@3QBDB DB 02bH				; supportedOps
	DB	02dH
	DB	02aH
	DB	02fH
	DB	05eH
	ORG $+3
?supportedVariableNames@@3QBDB DB 078H			; supportedVariableNames
	DB	079H
	DB	07aH
CONST	ENDS
PUBLIC	?__empty_global_delete@@YAXPEAX@Z		; __empty_global_delete
PUBLIC	?__empty_global_delete@@YAXPEAX_K@Z		; __empty_global_delete
PUBLIC	??2@YAPEAX_KPEAX@Z				; operator new
PUBLIC	__local_stdio_printf_options
PUBLIC	_vsprintf_s_l
PUBLIC	_vscprintf_l
PUBLIC	sprintf_s
PUBLIC	_scprintf
PUBLIC	??0exception@std@@QEAA@QEBD@Z			; std::exception::exception
PUBLIC	??0exception@std@@QEAA@QEBDH@Z			; std::exception::exception
PUBLIC	??0exception@std@@QEAA@AEBV01@@Z		; std::exception::exception
PUBLIC	??1exception@std@@UEAA@XZ			; std::exception::~exception
PUBLIC	?what@exception@std@@UEBAPEBDXZ			; std::exception::what
PUBLIC	??_Gexception@std@@UEAAPEAXI@Z			; std::exception::`scalar deleting destructor'
PUBLIC	??0bad_alloc@std@@AEAA@QEBD@Z			; std::bad_alloc::bad_alloc
PUBLIC	??1bad_alloc@std@@UEAA@XZ			; std::bad_alloc::~bad_alloc
PUBLIC	??0bad_alloc@std@@QEAA@AEBV01@@Z		; std::bad_alloc::bad_alloc
PUBLIC	??_Gbad_alloc@std@@UEAAPEAXI@Z			; std::bad_alloc::`scalar deleting destructor'
PUBLIC	??0bad_array_new_length@std@@QEAA@XZ		; std::bad_array_new_length::bad_array_new_length
PUBLIC	??1bad_array_new_length@std@@UEAA@XZ		; std::bad_array_new_length::~bad_array_new_length
PUBLIC	??0bad_array_new_length@std@@QEAA@AEBV01@@Z	; std::bad_array_new_length::bad_array_new_length
PUBLIC	??_Gbad_array_new_length@std@@UEAAPEAXI@Z	; std::bad_array_new_length::`scalar deleting destructor'
PUBLIC	?_Throw_bad_array_new_length@std@@YAXXZ		; std::_Throw_bad_array_new_length
PUBLIC	?max@?$numeric_limits@_J@std@@SA_JXZ		; std::numeric_limits<__int64>::max
PUBLIC	?_Allocate@_Default_allocate_traits@std@@SAPEAX_K@Z ; std::_Default_allocate_traits::_Allocate
PUBLIC	?_Adjust_manually_vector_aligned@std@@YAXAEAPEAXAEA_K@Z ; std::_Adjust_manually_vector_aligned
PUBLIC	??$_Convert_size@_K@std@@YA_K_K@Z		; std::_Convert_size<unsigned __int64>
PUBLIC	??0_Container_proxy@std@@QEAA@PEAU_Container_base12@1@@Z ; std::_Container_proxy::_Container_proxy
PUBLIC	??0_Container_base12@std@@QEAA@XZ		; std::_Container_base12::_Container_base12
PUBLIC	?_Orphan_all@_Container_base12@std@@QEAAXXZ	; std::_Container_base12::_Orphan_all
PUBLIC	?_Swap_proxy_and_iterators@_Container_base12@std@@QEAAXAEAU12@@Z ; std::_Container_base12::_Swap_proxy_and_iterators
PUBLIC	?_Orphan_all_unlocked_v3@_Container_base12@std@@AEAAXXZ ; std::_Container_base12::_Orphan_all_unlocked_v3
PUBLIC	?_Swap_proxy_and_iterators_unlocked@_Container_base12@std@@AEAAXAEAU12@@Z ; std::_Container_base12::_Swap_proxy_and_iterators_unlocked
PUBLIC	?_Orphan_all_locked_v3@_Container_base12@std@@AEAAXXZ ; std::_Container_base12::_Orphan_all_locked_v3
PUBLIC	?_Swap_proxy_and_iterators_locked@_Container_base12@std@@AEAAXAEAU12@@Z ; std::_Container_base12::_Swap_proxy_and_iterators_locked
PUBLIC	?_Release@_Basic_container_proxy_ptr12@std@@QEAAXXZ ; std::_Basic_container_proxy_ptr12::_Release
PUBLIC	??0_Basic_container_proxy_ptr12@std@@IEAA@XZ	; std::_Basic_container_proxy_ptr12::_Basic_container_proxy_ptr12
PUBLIC	??$addressof@U_Container_base12@std@@@std@@YAPEAU_Container_base12@0@AEAU10@@Z ; std::addressof<std::_Container_base12>
PUBLIC	??$_Construct_in_place@U_Container_proxy@std@@PEAU_Container_base12@2@@std@@YAXAEAU_Container_proxy@0@$$QEAPEAU_Container_base12@0@@Z ; std::_Construct_in_place<std::_Container_proxy,std::_Container_base12 *>
PUBLIC	?copy@?$_Char_traits@DH@std@@SAPEADQEADQEBD_K@Z	; std::_Char_traits<char,int>::copy
PUBLIC	?move@?$_Char_traits@DH@std@@SAPEADQEADQEBD_K@Z	; std::_Char_traits<char,int>::move
PUBLIC	?compare@?$_Narrow_char_traits@DH@std@@SAHQEBD0_K@Z ; std::_Narrow_char_traits<char,int>::compare
PUBLIC	?length@?$_Narrow_char_traits@DH@std@@SA_KQEBD@Z ; std::_Narrow_char_traits<char,int>::length
PUBLIC	?assign@?$_Narrow_char_traits@DH@std@@SAPEADQEAD_KD@Z ; std::_Narrow_char_traits<char,int>::assign
PUBLIC	?assign@?$_Narrow_char_traits@DH@std@@SAXAEADAEBD@Z ; std::_Narrow_char_traits<char,int>::assign
PUBLIC	?eq_int_type@?$_Narrow_char_traits@DH@std@@SA_NAEBH0@Z ; std::_Narrow_char_traits<char,int>::eq_int_type
PUBLIC	?eof@?$_Narrow_char_traits@DH@std@@SAHXZ	; std::_Narrow_char_traits<char,int>::eof
PUBLIC	?_Xlen_string@std@@YAXXZ			; std::_Xlen_string
PUBLIC	??0?$allocator@D@std@@QEAA@XZ			; std::allocator<char>::allocator<char>
PUBLIC	?deallocate@?$allocator@D@std@@QEAAXQEAD_K@Z	; std::allocator<char>::deallocate
PUBLIC	?allocate@?$allocator@D@std@@QEAAPEAD_K@Z	; std::allocator<char>::allocate
PUBLIC	?max_size@?$_Default_allocator_traits@V?$allocator@D@std@@@std@@SA_KAEBV?$allocator@D@2@@Z ; std::_Default_allocator_traits<std::allocator<char> >::max_size
PUBLIC	?select_on_container_copy_construction@?$_Default_allocator_traits@V?$allocator@D@std@@@std@@SA?AV?$allocator@D@2@AEBV32@@Z ; std::_Default_allocator_traits<std::allocator<char> >::select_on_container_copy_construction
PUBLIC	??0?$_String_val@U?$_Simple_types@D@std@@@std@@QEAA@XZ ; std::_String_val<std::_Simple_types<char> >::_String_val<std::_Simple_types<char> >
PUBLIC	?_Myptr@?$_String_val@U?$_Simple_types@D@std@@@std@@QEAAPEADXZ ; std::_String_val<std::_Simple_types<char> >::_Myptr
PUBLIC	?_Myptr@?$_String_val@U?$_Simple_types@D@std@@@std@@QEBAPEBDXZ ; std::_String_val<std::_Simple_types<char> >::_Myptr
PUBLIC	?_Large_string_engaged@?$_String_val@U?$_Simple_types@D@std@@@std@@QEBA_NXZ ; std::_String_val<std::_Simple_types<char> >::_Large_string_engaged
PUBLIC	?_Check_offset@?$_String_val@U?$_Simple_types@D@std@@@std@@QEBAX_K@Z ; std::_String_val<std::_Simple_types<char> >::_Check_offset
PUBLIC	?_Check_offset_exclusive@?$_String_val@U?$_Simple_types@D@std@@@std@@QEBAX_K@Z ; std::_String_val<std::_Simple_types<char> >::_Check_offset_exclusive
PUBLIC	?_Xran@?$_String_val@U?$_Simple_types@D@std@@@std@@SAXXZ ; std::_String_val<std::_Simple_types<char> >::_Xran
PUBLIC	?_Clamp_suffix_size@?$_String_val@U?$_Simple_types@D@std@@@std@@QEBA_K_K0@Z ; std::_String_val<std::_Simple_types<char> >::_Clamp_suffix_size
PUBLIC	??0_Bxty@?$_String_val@U?$_Simple_types@D@std@@@std@@QEAA@XZ ; std::_String_val<std::_Simple_types<char> >::_Bxty::_Bxty
PUBLIC	??1_Bxty@?$_String_val@U?$_Simple_types@D@std@@@std@@QEAA@XZ ; std::_String_val<std::_Simple_types<char> >::_Bxty::~_Bxty
PUBLIC	??1?$_String_val@U?$_Simple_types@D@std@@@std@@QEAA@XZ ; std::_String_val<std::_Simple_types<char> >::~_String_val<std::_Simple_types<char> >
PUBLIC	??0?$basic_string@DU?$char_traits@D@std@@V?$allocator@D@2@@std@@QEAA@AEBV01@@Z ; std::basic_string<char,std::char_traits<char>,std::allocator<char> >::basic_string<char,std::char_traits<char>,std::allocator<char> >
PUBLIC	??0?$basic_string@DU?$char_traits@D@std@@V?$allocator@D@2@@std@@QEAA@XZ ; std::basic_string<char,std::char_traits<char>,std::allocator<char> >::basic_string<char,std::char_traits<char>,std::allocator<char> >
PUBLIC	??0?$basic_string@DU?$char_traits@D@std@@V?$allocator@D@2@@std@@QEAA@AEBV01@_K1AEBV?$allocator@D@1@@Z ; std::basic_string<char,std::char_traits<char>,std::allocator<char> >::basic_string<char,std::char_traits<char>,std::allocator<char> >
PUBLIC	??0?$basic_string@DU?$char_traits@D@std@@V?$allocator@D@2@@std@@QEAA@QEBD@Z ; std::basic_string<char,std::char_traits<char>,std::allocator<char> >::basic_string<char,std::char_traits<char>,std::allocator<char> >
PUBLIC	??0?$basic_string@DU?$char_traits@D@std@@V?$allocator@D@2@@std@@QEAA@_KD@Z ; std::basic_string<char,std::char_traits<char>,std::allocator<char> >::basic_string<char,std::char_traits<char>,std::allocator<char> >
PUBLIC	??0?$basic_string@DU?$char_traits@D@std@@V?$allocator@D@2@@std@@QEAA@$$QEAV01@@Z ; std::basic_string<char,std::char_traits<char>,std::allocator<char> >::basic_string<char,std::char_traits<char>,std::allocator<char> >
PUBLIC	??0?$basic_string@DU?$char_traits@D@std@@V?$allocator@D@2@@std@@QEAA@U_String_constructor_concat_tag@1@AEBV01@QEBD_K23@Z ; std::basic_string<char,std::char_traits<char>,std::allocator<char> >::basic_string<char,std::char_traits<char>,std::allocator<char> >
PUBLIC	??0?$basic_string@DU?$char_traits@D@std@@V?$allocator@D@2@@std@@QEAA@U_String_constructor_concat_tag@1@AEAV01@1@Z ; std::basic_string<char,std::char_traits<char>,std::allocator<char> >::basic_string<char,std::char_traits<char>,std::allocator<char> >
PUBLIC	?_Move_assign@?$basic_string@DU?$char_traits@D@std@@V?$allocator@D@2@@std@@AEAAXAEAV12@U_Equal_allocators@2@@Z ; std::basic_string<char,std::char_traits<char>,std::allocator<char> >::_Move_assign
PUBLIC	??4?$basic_string@DU?$char_traits@D@std@@V?$allocator@D@2@@std@@QEAAAEAV01@$$QEAV01@@Z ; std::basic_string<char,std::char_traits<char>,std::allocator<char> >::operator=
PUBLIC	?_Memcpy_val_from@?$basic_string@DU?$char_traits@D@std@@V?$allocator@D@2@@std@@AEAAXAEBV12@@Z ; std::basic_string<char,std::char_traits<char>,std::allocator<char> >::_Memcpy_val_from
PUBLIC	?_Take_contents@?$basic_string@DU?$char_traits@D@std@@V?$allocator@D@2@@std@@AEAAXAEAV12@@Z ; std::basic_string<char,std::char_traits<char>,std::allocator<char> >::_Take_contents
PUBLIC	?_Construct_lv_contents@?$basic_string@DU?$char_traits@D@std@@V?$allocator@D@2@@std@@AEAAXAEBV12@@Z ; std::basic_string<char,std::char_traits<char>,std::allocator<char> >::_Construct_lv_contents
PUBLIC	??1?$basic_string@DU?$char_traits@D@std@@V?$allocator@D@2@@std@@QEAA@XZ ; std::basic_string<char,std::char_traits<char>,std::allocator<char> >::~basic_string<char,std::char_traits<char>,std::allocator<char> >
PUBLIC	?_Copy_assign@?$basic_string@DU?$char_traits@D@std@@V?$allocator@D@2@@std@@AEAAXAEBV12@U?$integral_constant@_N$0A@@2@@Z ; std::basic_string<char,std::char_traits<char>,std::allocator<char> >::_Copy_assign
PUBLIC	??4?$basic_string@DU?$char_traits@D@std@@V?$allocator@D@2@@std@@QEAAAEAV01@AEBV01@@Z ; std::basic_string<char,std::char_traits<char>,std::allocator<char> >::operator=
PUBLIC	?append@?$basic_string@DU?$char_traits@D@std@@V?$allocator@D@2@@std@@QEAAAEAV12@AEBV12@@Z ; std::basic_string<char,std::char_traits<char>,std::allocator<char> >::append
PUBLIC	?append@?$basic_string@DU?$char_traits@D@std@@V?$allocator@D@2@@std@@QEAAAEAV12@QEBD_K@Z ; std::basic_string<char,std::char_traits<char>,std::allocator<char> >::append
PUBLIC	?append@?$basic_string@DU?$char_traits@D@std@@V?$allocator@D@2@@std@@QEAAAEAV12@QEBD@Z ; std::basic_string<char,std::char_traits<char>,std::allocator<char> >::append
PUBLIC	?assign@?$basic_string@DU?$char_traits@D@std@@V?$allocator@D@2@@std@@QEAAAEAV12@AEBV12@_K_K@Z ; std::basic_string<char,std::char_traits<char>,std::allocator<char> >::assign
PUBLIC	?assign@?$basic_string@DU?$char_traits@D@std@@V?$allocator@D@2@@std@@QEAAAEAV12@QEBD_K@Z ; std::basic_string<char,std::char_traits<char>,std::allocator<char> >::assign
PUBLIC	?assign@?$basic_string@DU?$char_traits@D@std@@V?$allocator@D@2@@std@@QEAAAEAV12@QEBD@Z ; std::basic_string<char,std::char_traits<char>,std::allocator<char> >::assign
PUBLIC	?assign@?$basic_string@DU?$char_traits@D@std@@V?$allocator@D@2@@std@@QEAAAEAV12@_KD@Z ; std::basic_string<char,std::char_traits<char>,std::allocator<char> >::assign
PUBLIC	?at@?$basic_string@DU?$char_traits@D@std@@V?$allocator@D@2@@std@@QEAAAEAD_K@Z ; std::basic_string<char,std::char_traits<char>,std::allocator<char> >::at
PUBLIC	??A?$basic_string@DU?$char_traits@D@std@@V?$allocator@D@2@@std@@QEAAAEAD_K@Z ; std::basic_string<char,std::char_traits<char>,std::allocator<char> >::operator[]
PUBLIC	?c_str@?$basic_string@DU?$char_traits@D@std@@V?$allocator@D@2@@std@@QEBAPEBDXZ ; std::basic_string<char,std::char_traits<char>,std::allocator<char> >::c_str
PUBLIC	?data@?$basic_string@DU?$char_traits@D@std@@V?$allocator@D@2@@std@@QEBAPEBDXZ ; std::basic_string<char,std::char_traits<char>,std::allocator<char> >::data
PUBLIC	?length@?$basic_string@DU?$char_traits@D@std@@V?$allocator@D@2@@std@@QEBA_KXZ ; std::basic_string<char,std::char_traits<char>,std::allocator<char> >::length
PUBLIC	?size@?$basic_string@DU?$char_traits@D@std@@V?$allocator@D@2@@std@@QEBA_KXZ ; std::basic_string<char,std::char_traits<char>,std::allocator<char> >::size
PUBLIC	?max_size@?$basic_string@DU?$char_traits@D@std@@V?$allocator@D@2@@std@@QEBA_KXZ ; std::basic_string<char,std::char_traits<char>,std::allocator<char> >::max_size
PUBLIC	?substr@?$basic_string@DU?$char_traits@D@std@@V?$allocator@D@2@@std@@QEBA?AV12@_K0@Z ; std::basic_string<char,std::char_traits<char>,std::allocator<char> >::substr
PUBLIC	?compare@?$basic_string@DU?$char_traits@D@std@@V?$allocator@D@2@@std@@QEBAHQEBD@Z ; std::basic_string<char,std::char_traits<char>,std::allocator<char> >::compare
PUBLIC	?get_allocator@?$basic_string@DU?$char_traits@D@std@@V?$allocator@D@2@@std@@QEBA?AV?$allocator@D@2@XZ ; std::basic_string<char,std::char_traits<char>,std::allocator<char> >::get_allocator
PUBLIC	?_Calculate_growth@?$basic_string@DU?$char_traits@D@std@@V?$allocator@D@2@@std@@CA_K_K00@Z ; std::basic_string<char,std::char_traits<char>,std::allocator<char> >::_Calculate_growth
PUBLIC	?_Calculate_growth@?$basic_string@DU?$char_traits@D@std@@V?$allocator@D@2@@std@@AEBA_K_K@Z ; std::basic_string<char,std::char_traits<char>,std::allocator<char> >::_Calculate_growth
PUBLIC	?_Tidy_init@?$basic_string@DU?$char_traits@D@std@@V?$allocator@D@2@@std@@AEAAXXZ ; std::basic_string<char,std::char_traits<char>,std::allocator<char> >::_Tidy_init
PUBLIC	?_Tidy_deallocate@?$basic_string@DU?$char_traits@D@std@@V?$allocator@D@2@@std@@AEAAXXZ ; std::basic_string<char,std::char_traits<char>,std::allocator<char> >::_Tidy_deallocate
PUBLIC	?_Swap_proxy_and_iterators@?$basic_string@DU?$char_traits@D@std@@V?$allocator@D@2@@std@@AEAAXAEAV12@@Z ; std::basic_string<char,std::char_traits<char>,std::allocator<char> >::_Swap_proxy_and_iterators
PUBLIC	?_Getal@?$basic_string@DU?$char_traits@D@std@@V?$allocator@D@2@@std@@AEAAAEAV?$allocator@D@2@XZ ; std::basic_string<char,std::char_traits<char>,std::allocator<char> >::_Getal
PUBLIC	?_Getal@?$basic_string@DU?$char_traits@D@std@@V?$allocator@D@2@@std@@AEBAAEBV?$allocator@D@2@XZ ; std::basic_string<char,std::char_traits<char>,std::allocator<char> >::_Getal
PUBLIC	?_Get_first@?$_Compressed_pair@V?$allocator@D@std@@V?$_String_val@U?$_Simple_types@D@std@@@2@$00@std@@QEAAAEAV?$allocator@D@2@XZ ; std::_Compressed_pair<std::allocator<char>,std::_String_val<std::_Simple_types<char> >,1>::_Get_first
PUBLIC	?_Get_first@?$_Compressed_pair@V?$allocator@D@std@@V?$_String_val@U?$_Simple_types@D@std@@@2@$00@std@@QEBAAEBV?$allocator@D@2@XZ ; std::_Compressed_pair<std::allocator<char>,std::_String_val<std::_Simple_types<char> >,1>::_Get_first
PUBLIC	??1?$_Compressed_pair@V?$allocator@D@std@@V?$_String_val@U?$_Simple_types@D@std@@@2@$00@std@@QEAA@XZ ; std::_Compressed_pair<std::allocator<char>,std::_String_val<std::_Simple_types<char> >,1>::~_Compressed_pair<std::allocator<char>,std::_String_val<std::_Simple_types<char> >,1>
PUBLIC	??_G?$basic_string@DU?$char_traits@D@std@@V?$allocator@D@2@@std@@QEAAPEAXI@Z ; std::basic_string<char,std::char_traits<char>,std::allocator<char> >::`scalar deleting destructor'
PUBLIC	?fixed@std@@YAAEAVios_base@1@AEAV21@@Z		; std::fixed
PUBLIC	?to_string@std@@YA?AV?$basic_string@DU?$char_traits@D@std@@V?$allocator@D@2@@1@N@Z ; std::to_string
PUBLIC	??0op@@QEAA@V?$basic_string@DU?$char_traits@D@std@@V?$allocator@D@2@@std@@@Z ; op::op
PUBLIC	??1op@@QEAA@XZ					; op::~op
PUBLIC	??0op@@QEAA@AEBU0@@Z				; op::op
PUBLIC	??_Gop@@QEAAPEAXI@Z				; op::`scalar deleting destructor'
PUBLIC	?deallocate@?$allocator@V?$basic_string@DU?$char_traits@D@std@@V?$allocator@D@2@@std@@@std@@QEAAXQEAV?$basic_string@DU?$char_traits@D@std@@V?$allocator@D@2@@2@_K@Z ; std::allocator<std::basic_string<char,std::char_traits<char>,std::allocator<char> > >::deallocate
PUBLIC	??1?$vector@V?$basic_string@DU?$char_traits@D@std@@V?$allocator@D@2@@std@@V?$allocator@V?$basic_string@DU?$char_traits@D@std@@V?$allocator@D@2@@std@@@2@@std@@QEAA@XZ ; std::vector<std::basic_string<char,std::char_traits<char>,std::allocator<char> >,std::allocator<std::basic_string<char,std::char_traits<char>,std::allocator<char> > > >::~vector<std::basic_string<char,std::char_traits<char>,std::allocator<char> >,std::allocator<std::basic_string<char,std::char_traits<char>,std::allocator<char> > > >
PUBLIC	??A?$vector@V?$basic_string@DU?$char_traits@D@std@@V?$allocator@D@2@@std@@V?$allocator@V?$basic_string@DU?$char_traits@D@std@@V?$allocator@D@2@@std@@@2@@std@@QEAAAEAV?$basic_string@DU?$char_traits@D@std@@V?$allocator@D@2@@1@_K@Z ; std::vector<std::basic_string<char,std::char_traits<char>,std::allocator<char> >,std::allocator<std::basic_string<char,std::char_traits<char>,std::allocator<char> > > >::operator[]
PUBLIC	?_Destroy@?$vector@V?$basic_string@DU?$char_traits@D@std@@V?$allocator@D@2@@std@@V?$allocator@V?$basic_string@DU?$char_traits@D@std@@V?$allocator@D@2@@std@@@2@@std@@AEAAXPEAV?$basic_string@DU?$char_traits@D@std@@V?$allocator@D@2@@2@0@Z ; std::vector<std::basic_string<char,std::char_traits<char>,std::allocator<char> >,std::allocator<std::basic_string<char,std::char_traits<char>,std::allocator<char> > > >::_Destroy
PUBLIC	?_Tidy@?$vector@V?$basic_string@DU?$char_traits@D@std@@V?$allocator@D@2@@std@@V?$allocator@V?$basic_string@DU?$char_traits@D@std@@V?$allocator@D@2@@std@@@2@@std@@AEAAXXZ ; std::vector<std::basic_string<char,std::char_traits<char>,std::allocator<char> >,std::allocator<std::basic_string<char,std::char_traits<char>,std::allocator<char> > > >::_Tidy
PUBLIC	?_Getal@?$vector@V?$basic_string@DU?$char_traits@D@std@@V?$allocator@D@2@@std@@V?$allocator@V?$basic_string@DU?$char_traits@D@std@@V?$allocator@D@2@@std@@@2@@std@@AEAAAEAV?$allocator@V?$basic_string@DU?$char_traits@D@std@@V?$allocator@D@2@@std@@@2@XZ ; std::vector<std::basic_string<char,std::char_traits<char>,std::allocator<char> >,std::allocator<std::basic_string<char,std::char_traits<char>,std::allocator<char> > > >::_Getal
PUBLIC	?_Get_first@?$_Compressed_pair@V?$allocator@V?$basic_string@DU?$char_traits@D@std@@V?$allocator@D@2@@std@@@std@@V?$_Vector_val@U?$_Simple_types@V?$basic_string@DU?$char_traits@D@std@@V?$allocator@D@2@@std@@@std@@@2@$00@std@@QEAAAEAV?$allocator@V?$basic_string@DU?$char_traits@D@std@@V?$allocator@D@2@@std@@@2@XZ ; std::_Compressed_pair<std::allocator<std::basic_string<char,std::char_traits<char>,std::allocator<char> > >,std::_Vector_val<std::_Simple_types<std::basic_string<char,std::char_traits<char>,std::allocator<char> > > >,1>::_Get_first
PUBLIC	?__autoclassinit2@?$vector@V?$basic_string@DU?$char_traits@D@std@@V?$allocator@D@2@@std@@V?$allocator@V?$basic_string@DU?$char_traits@D@std@@V?$allocator@D@2@@std@@@2@@std@@QEAAX_K@Z ; std::vector<std::basic_string<char,std::char_traits<char>,std::allocator<char> >,std::allocator<std::basic_string<char,std::char_traits<char>,std::allocator<char> > > >::__autoclassinit2
PUBLIC	?deallocate@?$allocator@Uop@@@std@@QEAAXQEAUop@@_K@Z ; std::allocator<op>::deallocate
PUBLIC	?allocate@?$allocator@Uop@@@std@@QEAAPEAUop@@_K@Z ; std::allocator<op>::allocate
PUBLIC	?select_on_container_copy_construction@?$_Default_allocator_traits@V?$allocator@Uop@@@std@@@std@@SA?AV?$allocator@Uop@@@2@AEBV32@@Z ; std::_Default_allocator_traits<std::allocator<op> >::select_on_container_copy_construction
PUBLIC	??0?$vector@Uop@@V?$allocator@Uop@@@std@@@std@@QEAA@AEBV01@@Z ; std::vector<op,std::allocator<op> >::vector<op,std::allocator<op> >
PUBLIC	??1?$vector@Uop@@V?$allocator@Uop@@@std@@@std@@QEAA@XZ ; std::vector<op,std::allocator<op> >::~vector<op,std::allocator<op> >
PUBLIC	?_Unchecked_begin@?$vector@Uop@@V?$allocator@Uop@@@std@@@std@@QEAAPEAUop@@XZ ; std::vector<op,std::allocator<op> >::_Unchecked_begin
PUBLIC	?_Unchecked_end@?$vector@Uop@@V?$allocator@Uop@@@std@@@std@@QEAAPEAUop@@XZ ; std::vector<op,std::allocator<op> >::_Unchecked_end
PUBLIC	?size@?$vector@Uop@@V?$allocator@Uop@@@std@@@std@@QEBA_KXZ ; std::vector<op,std::allocator<op> >::size
PUBLIC	??A?$vector@Uop@@V?$allocator@Uop@@@std@@@std@@QEAAAEAUop@@_K@Z ; std::vector<op,std::allocator<op> >::operator[]
PUBLIC	?_Destroy@?$vector@Uop@@V?$allocator@Uop@@@std@@@std@@AEAAXPEAUop@@0@Z ; std::vector<op,std::allocator<op> >::_Destroy
PUBLIC	?_Buy_raw@?$vector@Uop@@V?$allocator@Uop@@@std@@@std@@AEAAX_K@Z ; std::vector<op,std::allocator<op> >::_Buy_raw
PUBLIC	?_Tidy@?$vector@Uop@@V?$allocator@Uop@@@std@@@std@@AEAAXXZ ; std::vector<op,std::allocator<op> >::_Tidy
PUBLIC	?_Getal@?$vector@Uop@@V?$allocator@Uop@@@std@@@std@@AEAAAEAV?$allocator@Uop@@@2@XZ ; std::vector<op,std::allocator<op> >::_Getal
PUBLIC	?_Getal@?$vector@Uop@@V?$allocator@Uop@@@std@@@std@@AEBAAEBV?$allocator@Uop@@@2@XZ ; std::vector<op,std::allocator<op> >::_Getal
PUBLIC	??0?$_Vector_val@U?$_Simple_types@Uop@@@std@@@std@@QEAA@XZ ; std::_Vector_val<std::_Simple_types<op> >::_Vector_val<std::_Simple_types<op> >
PUBLIC	?_Get_first@?$_Compressed_pair@V?$allocator@Uop@@@std@@V?$_Vector_val@U?$_Simple_types@Uop@@@std@@@2@$00@std@@QEAAAEAV?$allocator@Uop@@@2@XZ ; std::_Compressed_pair<std::allocator<op>,std::_Vector_val<std::_Simple_types<op> >,1>::_Get_first
PUBLIC	?_Get_first@?$_Compressed_pair@V?$allocator@Uop@@@std@@V?$_Vector_val@U?$_Simple_types@Uop@@@std@@@2@$00@std@@QEBAAEBV?$allocator@Uop@@@2@XZ ; std::_Compressed_pair<std::allocator<op>,std::_Vector_val<std::_Simple_types<op> >,1>::_Get_first
PUBLIC	?__autoclassinit2@?$vector@Uop@@V?$allocator@Uop@@@std@@@std@@QEAAX_K@Z ; std::vector<op,std::allocator<op> >::__autoclassinit2
PUBLIC	?deallocate@?$allocator@Ubraket_group@@@std@@QEAAXQEAUbraket_group@@_K@Z ; std::allocator<braket_group>::deallocate
PUBLIC	??1?$vector@Ubraket_group@@V?$allocator@Ubraket_group@@@std@@@std@@QEAA@XZ ; std::vector<braket_group,std::allocator<braket_group> >::~vector<braket_group,std::allocator<braket_group> >
PUBLIC	?_Destroy@?$vector@Ubraket_group@@V?$allocator@Ubraket_group@@@std@@@std@@AEAAXPEAUbraket_group@@0@Z ; std::vector<braket_group,std::allocator<braket_group> >::_Destroy
PUBLIC	?_Tidy@?$vector@Ubraket_group@@V?$allocator@Ubraket_group@@@std@@@std@@AEAAXXZ ; std::vector<braket_group,std::allocator<braket_group> >::_Tidy
PUBLIC	?_Getal@?$vector@Ubraket_group@@V?$allocator@Ubraket_group@@@std@@@std@@AEAAAEAV?$allocator@Ubraket_group@@@2@XZ ; std::vector<braket_group,std::allocator<braket_group> >::_Getal
PUBLIC	?_Get_first@?$_Compressed_pair@V?$allocator@Ubraket_group@@@std@@V?$_Vector_val@U?$_Simple_types@Ubraket_group@@@std@@@2@$00@std@@QEAAAEAV?$allocator@Ubraket_group@@@2@XZ ; std::_Compressed_pair<std::allocator<braket_group>,std::_Vector_val<std::_Simple_types<braket_group> >,1>::_Get_first
PUBLIC	??1expression@@QEAA@XZ				; expression::~expression
PUBLIC	?__autoclassinit2@expression@@QEAAX_K@Z		; expression::__autoclassinit2
PUBLIC	??0token@@QEAA@XZ				; token::token
PUBLIC	??1token@@QEAA@XZ				; token::~token
PUBLIC	?add@token@@QEAAXD@Z				; token::add
PUBLIC	?readString@token@@QEBA?AV?$basic_string@DU?$char_traits@D@std@@V?$allocator@D@2@@std@@XZ ; token::readString
PUBLIC	?length@token@@QEBA_KXZ				; token::length
PUBLIC	?reset@token@@QEAAXXZ				; token::reset
PUBLIC	?__autoclassinit2@token@@QEAAX_K@Z		; token::__autoclassinit2
PUBLIC	?__autoclassinit2@node@@QEAAX_K@Z		; node::__autoclassinit2
PUBLIC	??_Gnode@@QEAAPEAXI@Z				; node::`scalar deleting destructor'
PUBLIC	??0?$allocator@PEAVnode@@@std@@QEAA@XZ		; std::allocator<node *>::allocator<node *>
PUBLIC	?deallocate@?$allocator@PEAVnode@@@std@@QEAAXQEAPEAVnode@@_K@Z ; std::allocator<node *>::deallocate
PUBLIC	?allocate@?$allocator@PEAVnode@@@std@@QEAAPEAPEAVnode@@_K@Z ; std::allocator<node *>::allocate
PUBLIC	?max_size@?$_Default_allocator_traits@V?$allocator@PEAVnode@@@std@@@std@@SA_KAEBV?$allocator@PEAVnode@@@2@@Z ; std::_Default_allocator_traits<std::allocator<node *> >::max_size
PUBLIC	??0?$vector@PEAVnode@@V?$allocator@PEAVnode@@@std@@@std@@QEAA@XZ ; std::vector<node *,std::allocator<node *> >::vector<node *,std::allocator<node *> >
PUBLIC	??1?$vector@PEAVnode@@V?$allocator@PEAVnode@@@std@@@std@@QEAA@XZ ; std::vector<node *,std::allocator<node *> >::~vector<node *,std::allocator<node *> >
PUBLIC	?push_back@?$vector@PEAVnode@@V?$allocator@PEAVnode@@@std@@@std@@QEAAXAEBQEAVnode@@@Z ; std::vector<node *,std::allocator<node *> >::push_back
PUBLIC	?clear@?$vector@PEAVnode@@V?$allocator@PEAVnode@@@std@@@std@@QEAAXXZ ; std::vector<node *,std::allocator<node *> >::clear
PUBLIC	?_Unchecked_begin@?$vector@PEAVnode@@V?$allocator@PEAVnode@@@std@@@std@@QEAAPEAPEAVnode@@XZ ; std::vector<node *,std::allocator<node *> >::_Unchecked_begin
PUBLIC	?_Unchecked_end@?$vector@PEAVnode@@V?$allocator@PEAVnode@@@std@@@std@@QEAAPEAPEAVnode@@XZ ; std::vector<node *,std::allocator<node *> >::_Unchecked_end
PUBLIC	?max_size@?$vector@PEAVnode@@V?$allocator@PEAVnode@@@std@@@std@@QEBA_KXZ ; std::vector<node *,std::allocator<node *> >::max_size
PUBLIC	?capacity@?$vector@PEAVnode@@V?$allocator@PEAVnode@@@std@@@std@@QEBA_KXZ ; std::vector<node *,std::allocator<node *> >::capacity
PUBLIC	?front@?$vector@PEAVnode@@V?$allocator@PEAVnode@@@std@@@std@@QEAAAEAPEAVnode@@XZ ; std::vector<node *,std::allocator<node *> >::front
PUBLIC	?_Umove@?$vector@PEAVnode@@V?$allocator@PEAVnode@@@std@@@std@@AEAAPEAPEAVnode@@PEAPEAV3@00@Z ; std::vector<node *,std::allocator<node *> >::_Umove
PUBLIC	?_Umove_if_noexcept1@?$vector@PEAVnode@@V?$allocator@PEAVnode@@@std@@@std@@AEAAXPEAPEAVnode@@00U?$integral_constant@_N$00@2@@Z ; std::vector<node *,std::allocator<node *> >::_Umove_if_noexcept1
PUBLIC	?_Umove_if_noexcept@?$vector@PEAVnode@@V?$allocator@PEAVnode@@@std@@@std@@AEAAXPEAPEAVnode@@00@Z ; std::vector<node *,std::allocator<node *> >::_Umove_if_noexcept
PUBLIC	?_Destroy@?$vector@PEAVnode@@V?$allocator@PEAVnode@@@std@@@std@@AEAAXPEAPEAVnode@@0@Z ; std::vector<node *,std::allocator<node *> >::_Destroy
PUBLIC	?_Calculate_growth@?$vector@PEAVnode@@V?$allocator@PEAVnode@@@std@@@std@@AEBA_K_K@Z ; std::vector<node *,std::allocator<node *> >::_Calculate_growth
PUBLIC	?_Change_array@?$vector@PEAVnode@@V?$allocator@PEAVnode@@@std@@@std@@AEAAXQEAPEAVnode@@_K1@Z ; std::vector<node *,std::allocator<node *> >::_Change_array
PUBLIC	?_Tidy@?$vector@PEAVnode@@V?$allocator@PEAVnode@@@std@@@std@@AEAAXXZ ; std::vector<node *,std::allocator<node *> >::_Tidy
PUBLIC	?_Xlength@?$vector@PEAVnode@@V?$allocator@PEAVnode@@@std@@@std@@CAXXZ ; std::vector<node *,std::allocator<node *> >::_Xlength
PUBLIC	?_Orphan_range_unlocked@?$vector@PEAVnode@@V?$allocator@PEAVnode@@@std@@@std@@AEBAXPEAPEAVnode@@0@Z ; std::vector<node *,std::allocator<node *> >::_Orphan_range_unlocked
PUBLIC	?_Orphan_range_locked@?$vector@PEAVnode@@V?$allocator@PEAVnode@@@std@@@std@@AEBAXPEAPEAVnode@@0@Z ; std::vector<node *,std::allocator<node *> >::_Orphan_range_locked
PUBLIC	?_Orphan_range@?$vector@PEAVnode@@V?$allocator@PEAVnode@@@std@@@std@@AEBAXPEAPEAVnode@@0@Z ; std::vector<node *,std::allocator<node *> >::_Orphan_range
PUBLIC	?_Getal@?$vector@PEAVnode@@V?$allocator@PEAVnode@@@std@@@std@@AEAAAEAV?$allocator@PEAVnode@@@2@XZ ; std::vector<node *,std::allocator<node *> >::_Getal
PUBLIC	?_Getal@?$vector@PEAVnode@@V?$allocator@PEAVnode@@@std@@@std@@AEBAAEBV?$allocator@PEAVnode@@@2@XZ ; std::vector<node *,std::allocator<node *> >::_Getal
PUBLIC	??0?$_Vector_val@U?$_Simple_types@PEAVnode@@@std@@@std@@QEAA@XZ ; std::_Vector_val<std::_Simple_types<node *> >::_Vector_val<std::_Simple_types<node *> >
PUBLIC	?_Get_first@?$_Compressed_pair@V?$allocator@PEAVnode@@@std@@V?$_Vector_val@U?$_Simple_types@PEAVnode@@@std@@@2@$00@std@@QEAAAEAV?$allocator@PEAVnode@@@2@XZ ; std::_Compressed_pair<std::allocator<node *>,std::_Vector_val<std::_Simple_types<node *> >,1>::_Get_first
PUBLIC	?_Get_first@?$_Compressed_pair@V?$allocator@PEAVnode@@@std@@V?$_Vector_val@U?$_Simple_types@PEAVnode@@@std@@@2@$00@std@@QEBAAEBV?$allocator@PEAVnode@@@2@XZ ; std::_Compressed_pair<std::allocator<node *>,std::_Vector_val<std::_Simple_types<node *> >,1>::_Get_first
PUBLIC	?getNodeByNumber@binary_tree@@QEAAPEAVnode@@H@Z	; binary_tree::getNodeByNumber
PUBLIC	??1binary_tree@@QEAA@XZ				; binary_tree::~binary_tree
PUBLIC	??0binary_tree@@QEAA@XZ				; binary_tree::binary_tree
PUBLIC	??0tree_builder@@QEAA@PEAVexpression@@@Z	; tree_builder::tree_builder
PUBLIC	?generate_random_tree@tree_builder@@QEAAXHV?$basic_string@DU?$char_traits@D@std@@V?$allocator@D@2@@std@@0@Z ; tree_builder::generate_random_tree
PUBLIC	?randomDouble@tree_builder@@QEAANNN@Z		; tree_builder::randomDouble
PUBLIC	?getrand@tree_builder@@QEAAH_K@Z		; tree_builder::getrand
PUBLIC	?createLeftRightNodes@tree_builder@@QEAAXHV?$basic_string@DU?$char_traits@D@std@@V?$allocator@D@2@@std@@PEAVnode@@0@Z ; tree_builder::createLeftRightNodes
PUBLIC	?print_node@tree_builder@@QEAAXPEAVnode@@@Z	; tree_builder::print_node
PUBLIC	?print_tree@tree_builder@@QEAAXXZ		; tree_builder::print_tree
PUBLIC	?to_string@tree_builder@@QEAA?AV?$basic_string@DU?$char_traits@D@std@@V?$allocator@D@2@@std@@XZ ; tree_builder::to_string
PUBLIC	?random_to_string@tree_builder@@QEAA?AV?$basic_string@DU?$char_traits@D@std@@V?$allocator@D@2@@std@@XZ ; tree_builder::random_to_string
PUBLIC	?get_string@tree_builder@@QEAAXPEAVnode@@AEAV?$basic_string@DU?$char_traits@D@std@@V?$allocator@D@2@@std@@@Z ; tree_builder::get_string
PUBLIC	?findMaxIndex@tree_builder@@QEAAHV?$vector@Uop@@V?$allocator@Uop@@@std@@@std@@HHH@Z ; tree_builder::findMaxIndex
PUBLIC	?addLeft@tree_builder@@QEAAXPEAVnode@@H@Z	; tree_builder::addLeft
PUBLIC	?addRight@tree_builder@@QEAAXPEAVnode@@HH@Z	; tree_builder::addRight
PUBLIC	?build@tree_builder@@QEAAXXZ			; tree_builder::build
PUBLIC	?performOperation@tree_builder@@QEAANUop@@NN@Z	; tree_builder::performOperation
PUBLIC	?calcNode@tree_builder@@QEAANPEAVnode@@@Z	; tree_builder::calcNode
PUBLIC	?calc@tree_builder@@QEAANNNN@Z			; tree_builder::calc
PUBLIC	??1tree_builder@@QEAA@XZ			; tree_builder::~tree_builder
PUBLIC	?__autoclassinit2@tree_builder@@QEAAX_K@Z	; tree_builder::__autoclassinit2
PUBLIC	??$?6DU?$char_traits@D@std@@V?$allocator@D@1@@std@@YAAEAV?$basic_ostream@DU?$char_traits@D@std@@@0@AEAV10@AEBV?$basic_string@DU?$char_traits@D@std@@V?$allocator@D@2@@0@@Z ; std::operator<<<char,std::char_traits<char>,std::allocator<char> >
PUBLIC	??$endl@DU?$char_traits@D@std@@@std@@YAAEAV?$basic_ostream@DU?$char_traits@D@std@@@0@AEAV10@@Z ; std::endl<char,std::char_traits<char> >
PUBLIC	??$?HDU?$char_traits@D@std@@V?$allocator@D@1@@std@@YA?AV?$basic_string@DU?$char_traits@D@std@@V?$allocator@D@2@@0@QEBDAEBV10@@Z ; std::operator+<char,std::char_traits<char>,std::allocator<char> >
PUBLIC	??$?HDU?$char_traits@D@std@@V?$allocator@D@1@@std@@YA?AV?$basic_string@DU?$char_traits@D@std@@V?$allocator@D@2@@0@$$QEAV10@QEBD@Z ; std::operator+<char,std::char_traits<char>,std::allocator<char> >
PUBLIC	??$?HDU?$char_traits@D@std@@V?$allocator@D@1@@std@@YA?AV?$basic_string@DU?$char_traits@D@std@@V?$allocator@D@2@@0@$$QEAV10@AEBV10@@Z ; std::operator+<char,std::char_traits<char>,std::allocator<char> >
PUBLIC	??$?HDU?$char_traits@D@std@@V?$allocator@D@1@@std@@YA?AV?$basic_string@DU?$char_traits@D@std@@V?$allocator@D@2@@0@$$QEAV10@0@Z ; std::operator+<char,std::char_traits<char>,std::allocator<char> >
PUBLIC	?isTokenizable@@YA_ND@Z				; isTokenizable
PUBLIC	?IsSupportedVariableName@@YA_ND@Z		; IsSupportedVariableName
PUBLIC	?setPrev@@YA_NDPEAD@Z				; setPrev
PUBLIC	?IsOperator@@YA_ND@Z				; IsOperator
PUBLIC	main
PUBLIC	??$?6U?$char_traits@D@std@@@std@@YAAEAV?$basic_ostream@DU?$char_traits@D@std@@@0@AEAV10@PEBD@Z ; std::operator<<<std::char_traits<char> >
PUBLIC	??$?6U?$char_traits@D@std@@@std@@YAAEAV?$basic_ostream@DU?$char_traits@D@std@@@0@AEAV10@D@Z ; std::operator<<<std::char_traits<char> >
PUBLIC	??$emplace_back@AEBQEAVnode@@@?$vector@PEAVnode@@V?$allocator@PEAVnode@@@std@@@std@@QEAA?A_TAEBQEAVnode@@@Z ; std::vector<node *,std::allocator<node *> >::emplace_back<node * const &>
PUBLIC	??$forward@AEBQEAVnode@@@std@@YAAEBQEAVnode@@AEBQEAV1@@Z ; std::forward<node * const &>
PUBLIC	??$_Emplace_back_with_unused_capacity@AEBQEAVnode@@@?$vector@PEAVnode@@V?$allocator@PEAVnode@@@std@@@std@@AEAA?A_TAEBQEAVnode@@@Z ; std::vector<node *,std::allocator<node *> >::_Emplace_back_with_unused_capacity<node * const &>
PUBLIC	??$_Unfancy@PEAVnode@@@std@@YAPEAPEAVnode@@PEAPEAV1@@Z ; std::_Unfancy<node *>
PUBLIC	??$construct@PEAVnode@@AEBQEAV1@@?$_Default_allocator_traits@V?$allocator@PEAVnode@@@std@@@std@@SAXAEAV?$allocator@PEAVnode@@@1@QEAPEAVnode@@AEBQEAV3@@Z ; std::_Default_allocator_traits<std::allocator<node *> >::construct<node *,node * const &>
PUBLIC	??$_Emplace_reallocate@AEBQEAVnode@@@?$vector@PEAVnode@@V?$allocator@PEAVnode@@@std@@@std@@QEAAPEAPEAVnode@@QEAPEAV2@AEBQEAV2@@Z ; std::vector<node *,std::allocator<node *> >::_Emplace_reallocate<node * const &>
PUBLIC	?allocate@?$allocator@U_Container_proxy@std@@@std@@QEAAPEAU_Container_proxy@2@_K@Z ; std::allocator<std::_Container_proxy>::allocate
PUBLIC	??$?0PEAVnode@@@?$allocator@U_Container_proxy@std@@@std@@QEAA@AEBV?$allocator@PEAVnode@@@1@@Z ; std::allocator<std::_Container_proxy>::allocator<std::_Container_proxy><node *>
PUBLIC	??$exchange@PEAU_Container_proxy@std@@$$T@std@@YAPEAU_Container_proxy@0@AEAPEAU10@$$QEA$$T@Z ; std::exchange<std::_Container_proxy *,std::nullptr_t>
PUBLIC	??$_Delete_plain_internal@V?$allocator@U_Container_proxy@std@@@std@@@std@@YAXAEAV?$allocator@U_Container_proxy@std@@@0@QEAU_Container_proxy@0@@Z ; std::_Delete_plain_internal<std::allocator<std::_Container_proxy> >
PUBLIC	??$?0$$V@?$_Compressed_pair@V?$allocator@PEAVnode@@@std@@V?$_Vector_val@U?$_Simple_types@PEAVnode@@@std@@@2@$00@std@@QEAA@U_Zero_then_variadic_args_t@1@@Z ; std::_Compressed_pair<std::allocator<node *>,std::_Vector_val<std::_Simple_types<node *> >,1>::_Compressed_pair<std::allocator<node *>,std::_Vector_val<std::_Simple_types<node *> >,1><>
PUBLIC	??$_Alloc_proxy@V?$allocator@U_Container_proxy@std@@@std@@@_Container_base12@std@@QEAAX$$QEAV?$allocator@U_Container_proxy@std@@@1@@Z ; std::_Container_base12::_Alloc_proxy<std::allocator<std::_Container_proxy> >
PUBLIC	??$?0Ubraket_group@@@?$allocator@U_Container_proxy@std@@@std@@QEAA@AEBV?$allocator@Ubraket_group@@@1@@Z ; std::allocator<std::_Container_proxy>::allocator<std::_Container_proxy><braket_group>
PUBLIC	??$?0Uop@@@?$allocator@U_Container_proxy@std@@@std@@QEAA@AEBV?$allocator@Uop@@@1@@Z ; std::allocator<std::_Container_proxy>::allocator<std::_Container_proxy><op>
PUBLIC	??$?0V?$allocator@Uop@@@std@@$$V@?$_Compressed_pair@V?$allocator@Uop@@@std@@V?$_Vector_val@U?$_Simple_types@Uop@@@std@@@2@$00@std@@QEAA@U_One_then_variadic_args_t@1@$$QEAV?$allocator@Uop@@@1@@Z ; std::_Compressed_pair<std::allocator<op>,std::_Vector_val<std::_Simple_types<op> >,1>::_Compressed_pair<std::allocator<op>,std::_Vector_val<std::_Simple_types<op> >,1><std::allocator<op> >
PUBLIC	??0?$_Container_proxy_ptr12@V?$allocator@U_Container_proxy@std@@@std@@@std@@QEAA@AEAV?$allocator@U_Container_proxy@std@@@1@AEAU_Container_base12@1@@Z ; std::_Container_proxy_ptr12<std::allocator<std::_Container_proxy> >::_Container_proxy_ptr12<std::allocator<std::_Container_proxy> >
PUBLIC	??1?$_Container_proxy_ptr12@V?$allocator@U_Container_proxy@std@@@std@@@std@@QEAA@XZ ; std::_Container_proxy_ptr12<std::allocator<std::_Container_proxy> >::~_Container_proxy_ptr12<std::allocator<std::_Container_proxy> >
PUBLIC	??1?$_Tidy_guard@V?$vector@Uop@@V?$allocator@Uop@@@std@@@std@@@std@@QEAA@XZ ; std::_Tidy_guard<std::vector<op,std::allocator<op> > >::~_Tidy_guard<std::vector<op,std::allocator<op> > >
PUBLIC	??$_Ucopy@PEAUop@@@?$vector@Uop@@V?$allocator@Uop@@@std@@@std@@AEAAPEAUop@@PEAU2@00@Z ; std::vector<op,std::allocator<op> >::_Ucopy<op *>
PUBLIC	??$?0V?$basic_string@DU?$char_traits@D@std@@V?$allocator@D@2@@std@@@?$allocator@U_Container_proxy@std@@@std@@QEAA@AEBV?$allocator@V?$basic_string@DU?$char_traits@D@std@@V?$allocator@D@2@@std@@@1@@Z ; std::allocator<std::_Container_proxy>::allocator<std::_Container_proxy><std::basic_string<char,std::char_traits<char>,std::allocator<char> > >
PUBLIC	??0_Sentry_base@?$basic_ostream@DU?$char_traits@D@std@@@std@@QEAA@AEAV12@@Z ; std::basic_ostream<char,std::char_traits<char> >::_Sentry_base::_Sentry_base
PUBLIC	??1_Sentry_base@?$basic_ostream@DU?$char_traits@D@std@@@std@@QEAA@XZ ; std::basic_ostream<char,std::char_traits<char> >::_Sentry_base::~_Sentry_base
PUBLIC	??0sentry@?$basic_ostream@DU?$char_traits@D@std@@@std@@QEAA@AEAV12@@Z ; std::basic_ostream<char,std::char_traits<char> >::sentry::sentry
PUBLIC	??1sentry@?$basic_ostream@DU?$char_traits@D@std@@@std@@QEAA@XZ ; std::basic_ostream<char,std::char_traits<char> >::sentry::~sentry
PUBLIC	??Bsentry@?$basic_ostream@DU?$char_traits@D@std@@@std@@QEBA_NXZ ; std::basic_ostream<char,std::char_traits<char> >::sentry::operator bool
PUBLIC	??$move@AEAV?$basic_string@DU?$char_traits@D@std@@V?$allocator@D@2@@std@@@std@@YA$$QEAV?$basic_string@DU?$char_traits@D@std@@V?$allocator@D@2@@0@AEAV10@@Z ; std::move<std::basic_string<char,std::char_traits<char>,std::allocator<char> > &>
PUBLIC	??$min@_K@std@@YAAEB_KAEB_K0@Z			; std::min<unsigned __int64>
PUBLIC	??$_Traits_compare@U?$char_traits@D@std@@@std@@YAHQEBD_K01@Z ; std::_Traits_compare<std::char_traits<char> >
PUBLIC	??$addressof@$$CBV?$basic_string@DU?$char_traits@D@std@@V?$allocator@D@2@@std@@@std@@YAPEBV?$basic_string@DU?$char_traits@D@std@@V?$allocator@D@2@@0@AEBV10@@Z ; std::addressof<std::basic_string<char,std::char_traits<char>,std::allocator<char> > const >
PUBLIC	??$?0D@?$allocator@U_Container_proxy@std@@@std@@QEAA@AEBV?$allocator@D@1@@Z ; std::allocator<std::_Container_proxy>::allocator<std::_Container_proxy><char>
PUBLIC	??$addressof@V?$basic_string@DU?$char_traits@D@std@@V?$allocator@D@2@@std@@@std@@YAPEAV?$basic_string@DU?$char_traits@D@std@@V?$allocator@D@2@@0@AEAV10@@Z ; std::addressof<std::basic_string<char,std::char_traits<char>,std::allocator<char> > >
PUBLIC	??$move@AEAV?$allocator@D@std@@@std@@YA$$QEAV?$allocator@D@0@AEAV10@@Z ; std::move<std::allocator<char> &>
PUBLIC	??$?0V?$allocator@D@std@@$$V@?$_Compressed_pair@V?$allocator@D@std@@V?$_String_val@U?$_Simple_types@D@std@@@2@$00@std@@QEAA@U_One_then_variadic_args_t@1@$$QEAV?$allocator@D@1@@Z ; std::_Compressed_pair<std::allocator<char>,std::_String_val<std::_Simple_types<char> >,1>::_Compressed_pair<std::allocator<char>,std::_String_val<std::_Simple_types<char> >,1><std::allocator<char> >
PUBLIC	??$?0$$V@?$_Compressed_pair@V?$allocator@D@std@@V?$_String_val@U?$_Simple_types@D@std@@@2@$00@std@@QEAA@U_Zero_then_variadic_args_t@1@@Z ; std::_Compressed_pair<std::allocator<char>,std::_String_val<std::_Simple_types<char> >,1>::_Compressed_pair<std::allocator<char>,std::_String_val<std::_Simple_types<char> >,1><>
PUBLIC	??$_Unfancy@U_Container_proxy@std@@@std@@YAPEAU_Container_proxy@0@PEAU10@@Z ; std::_Unfancy<std::_Container_proxy>
PUBLIC	??$_Destroy_range@V?$allocator@PEAVnode@@@std@@@std@@YAXPEAPEAVnode@@QEAPEAV1@AEAV?$allocator@PEAVnode@@@0@@Z ; std::_Destroy_range<std::allocator<node *> >
PUBLIC	??$_Destroy_in_place@PEAD@std@@YAXAEAPEAD@Z	; std::_Destroy_in_place<char *>
PUBLIC	??R<lambda_138c3d7c38c85abb84c7fc7bfe5747b7>@@QEBA@QEAD_KD@Z ; <lambda_138c3d7c38c85abb84c7fc7bfe5747b7>::operator()
PUBLIC	??$_Reallocate_for@V<lambda_138c3d7c38c85abb84c7fc7bfe5747b7>@@D@?$basic_string@DU?$char_traits@D@std@@V?$allocator@D@2@@std@@AEAAAEAV01@_KV<lambda_138c3d7c38c85abb84c7fc7bfe5747b7>@@D@Z ; std::basic_string<char,std::char_traits<char>,std::allocator<char> >::_Reallocate_for<<lambda_138c3d7c38c85abb84c7fc7bfe5747b7>,char>
PUBLIC	??R<lambda_66f57f934f28d61049862f64df852ff0>@@QEBA@QEAD_KQEBD@Z ; <lambda_66f57f934f28d61049862f64df852ff0>::operator()
PUBLIC	??$_Reallocate_for@V<lambda_66f57f934f28d61049862f64df852ff0>@@PEBD@?$basic_string@DU?$char_traits@D@std@@V?$allocator@D@2@@std@@AEAAAEAV01@_KV<lambda_66f57f934f28d61049862f64df852ff0>@@PEBD@Z ; std::basic_string<char,std::char_traits<char>,std::allocator<char> >::_Reallocate_for<<lambda_66f57f934f28d61049862f64df852ff0>,char const *>
PUBLIC	??R<lambda_65e615be2a453ca0576c979606f46740>@@QEBA@QEADQEBD_K12@Z ; <lambda_65e615be2a453ca0576c979606f46740>::operator()
PUBLIC	??$_Reallocate_grow_by@V<lambda_65e615be2a453ca0576c979606f46740>@@PEBD_K@?$basic_string@DU?$char_traits@D@std@@V?$allocator@D@2@@std@@AEAAAEAV01@_KV<lambda_65e615be2a453ca0576c979606f46740>@@PEBD_K@Z ; std::basic_string<char,std::char_traits<char>,std::allocator<char> >::_Reallocate_grow_by<<lambda_65e615be2a453ca0576c979606f46740>,char const *,unsigned __int64>
PUBLIC	??$_Pocca@V?$allocator@D@std@@@std@@YAXAEAV?$allocator@D@0@AEBV10@@Z ; std::_Pocca<std::allocator<char> >
PUBLIC	??$_Construct_in_place@PEADAEBQEAD@std@@YAXAEAPEADAEBQEAD@Z ; std::_Construct_in_place<char *,char * const &>
PUBLIC	??$_Unfancy@D@std@@YAPEADPEAD@Z			; std::_Unfancy<char>
PUBLIC	??$_Construct_in_place@PEADAEAPEAD@std@@YAXAEAPEAD0@Z ; std::_Construct_in_place<char *,char * &>
PUBLIC	??$_Pocma@V?$allocator@D@std@@@std@@YAXAEAV?$allocator@D@0@0@Z ; std::_Pocma<std::allocator<char> >
PUBLIC	??$?0AEBV?$allocator@D@std@@$$V@?$_Compressed_pair@V?$allocator@D@std@@V?$_String_val@U?$_Simple_types@D@std@@@2@$00@std@@QEAA@U_One_then_variadic_args_t@1@AEBV?$allocator@D@1@@Z ; std::_Compressed_pair<std::allocator<char>,std::_String_val<std::_Simple_types<char> >,1>::_Compressed_pair<std::allocator<char>,std::_String_val<std::_Simple_types<char> >,1><std::allocator<char> const &>
PUBLIC	??$max@_K@std@@YAAEB_KAEB_K0@Z			; std::max<unsigned __int64>
PUBLIC	??$_Get_size_of_n@$0BA@@std@@YA_K_K@Z		; std::_Get_size_of_n<16>
PUBLIC	??$_Allocate@$0BA@U_Default_allocate_traits@std@@$0A@@std@@YAPEAX_K@Z ; std::_Allocate<16,std::_Default_allocate_traits,0>
PUBLIC	??$_Deallocate@$0BA@$0A@@std@@YAXPEAX_K@Z	; std::_Deallocate<16,0>
PUBLIC	??$_Destroy_range@V?$allocator@Ubraket_group@@@std@@@std@@YAXPEAUbraket_group@@QEAU1@AEAV?$allocator@Ubraket_group@@@0@@Z ; std::_Destroy_range<std::allocator<braket_group> >
PUBLIC	??$_Destroy_range@V?$allocator@Uop@@@std@@@std@@YAXPEAUop@@QEAU1@AEAV?$allocator@Uop@@@0@@Z ; std::_Destroy_range<std::allocator<op> >
PUBLIC	??$_Get_size_of_n@$0DA@@std@@YA_K_K@Z		; std::_Get_size_of_n<48>
PUBLIC	??$_Destroy_range@V?$allocator@V?$basic_string@DU?$char_traits@D@std@@V?$allocator@D@2@@std@@@std@@@std@@YAXPEAV?$basic_string@DU?$char_traits@D@std@@V?$allocator@D@2@@0@QEAV10@AEAV?$allocator@V?$basic_string@DU?$char_traits@D@std@@V?$allocator@D@2@@std@@@0@@Z ; std::_Destroy_range<std::allocator<std::basic_string<char,std::char_traits<char>,std::allocator<char> > > >
PUBLIC	??$addressof@V?$_String_val@U?$_Simple_types@D@std@@@std@@@std@@YAPEAV?$_String_val@U?$_Simple_types@D@std@@@0@AEAV10@@Z ; std::addressof<std::_String_val<std::_Simple_types<char> > >
PUBLIC	??$addressof@$$CBV?$_String_val@U?$_Simple_types@D@std@@@std@@@std@@YAPEBV?$_String_val@U?$_Simple_types@D@std@@@0@AEBV10@@Z ; std::addressof<std::_String_val<std::_Simple_types<char> > const >
PUBLIC	??$_Get_size_of_n@$00@std@@YA_K_K@Z		; std::_Get_size_of_n<1>
PUBLIC	??$addressof@U_Container_proxy@std@@@std@@YAPEAU_Container_proxy@0@AEAU10@@Z ; std::addressof<std::_Container_proxy>
PUBLIC	??$_Voidify_iter@PEAU_Container_proxy@std@@@std@@YAPEAXPEAU_Container_proxy@0@@Z ; std::_Voidify_iter<std::_Container_proxy *>
PUBLIC	??$forward@PEAU_Container_base12@std@@@std@@YA$$QEAPEAU_Container_base12@0@AEAPEAU10@@Z ; std::forward<std::_Container_base12 *>
PUBLIC	??$_Insert_string@DU?$char_traits@D@std@@_K@std@@YAAEAV?$basic_ostream@DU?$char_traits@D@std@@@0@AEAV10@QEBD_K@Z ; std::_Insert_string<char,std::char_traits<char>,unsigned __int64>
PUBLIC	??$_Voidify_iter@PEAPEAVnode@@@std@@YAPEAXPEAPEAVnode@@@Z ; std::_Voidify_iter<node * *>
PUBLIC	??$_Deallocate_plain@V?$allocator@U_Container_proxy@std@@@std@@@std@@YAXAEAV?$allocator@U_Container_proxy@std@@@0@QEAU_Container_proxy@0@@Z ; std::_Deallocate_plain<std::allocator<std::_Container_proxy> >
PUBLIC	??$forward@V?$allocator@Uop@@@std@@@std@@YA$$QEAV?$allocator@Uop@@@0@AEAV10@@Z ; std::forward<std::allocator<op> >
PUBLIC	??$_Uninitialized_copy@PEAUop@@V?$allocator@Uop@@@std@@@std@@YAPEAUop@@QEAU1@0PEAU1@AEAV?$allocator@Uop@@@0@@Z ; std::_Uninitialized_copy<op *,std::allocator<op> >
PUBLIC	??$forward@V?$allocator@D@std@@@std@@YA$$QEAV?$allocator@D@0@AEAV10@@Z ; std::forward<std::allocator<char> >
PUBLIC	??$addressof@PEAD@std@@YAPEAPEADAEAPEAD@Z	; std::addressof<char *>
PUBLIC	??$_Voidify_iter@PEAPEAD@std@@YAPEAXPEAPEAD@Z	; std::_Voidify_iter<char * *>
PUBLIC	??$forward@AEBQEAD@std@@YAAEBQEADAEBQEAD@Z	; std::forward<char * const &>
PUBLIC	??$forward@AEAPEAD@std@@YAAEAPEADAEAPEAD@Z	; std::forward<char * &>
PUBLIC	??$forward@AEBV?$allocator@D@std@@@std@@YAAEBV?$allocator@D@0@AEBV10@@Z ; std::forward<std::allocator<char> const &>
PUBLIC	??$_Allocate_manually_vector_aligned@U_Default_allocate_traits@std@@@std@@YAPEAX_K@Z ; std::_Allocate_manually_vector_aligned<std::_Default_allocate_traits>
PUBLIC	??$_Unfancy@Uop@@@std@@YAPEAUop@@PEAU1@@Z	; std::_Unfancy<op>
PUBLIC	??$destroy@Uop@@@?$_Default_allocator_traits@V?$allocator@Uop@@@std@@@std@@SAXAEAV?$allocator@Uop@@@1@QEAUop@@@Z ; std::_Default_allocator_traits<std::allocator<op> >::destroy<op>
PUBLIC	??$_Unfancy@V?$basic_string@DU?$char_traits@D@std@@V?$allocator@D@2@@std@@@std@@YAPEAV?$basic_string@DU?$char_traits@D@std@@V?$allocator@D@2@@0@PEAV10@@Z ; std::_Unfancy<std::basic_string<char,std::char_traits<char>,std::allocator<char> > >
PUBLIC	??$destroy@V?$basic_string@DU?$char_traits@D@std@@V?$allocator@D@2@@std@@@?$_Default_allocator_traits@V?$allocator@V?$basic_string@DU?$char_traits@D@std@@V?$allocator@D@2@@std@@@std@@@std@@SAXAEAV?$allocator@V?$basic_string@DU?$char_traits@D@std@@V?$allocator@D@2@@std@@@1@QEAV?$basic_string@DU?$char_traits@D@std@@V?$allocator@D@2@@1@@Z ; std::_Default_allocator_traits<std::allocator<std::basic_string<char,std::char_traits<char>,std::allocator<char> > > >::destroy<std::basic_string<char,std::char_traits<char>,std::allocator<char> > >
PUBLIC	??$_Uninitialized_move@PEAPEAVnode@@V?$allocator@PEAVnode@@@std@@@std@@YAPEAPEAVnode@@QEAPEAV1@0PEAPEAV1@AEAV?$allocator@PEAVnode@@@0@@Z ; std::_Uninitialized_move<node * *,std::allocator<node *> >
PUBLIC	??$_Get_size_of_n@$07@std@@YA_K_K@Z		; std::_Get_size_of_n<8>
PUBLIC	??$?0AEAV?$allocator@D@std@@$$V@?$_Compressed_pair@V?$allocator@D@std@@V?$_String_val@U?$_Simple_types@D@std@@@2@$00@std@@QEAA@U_One_then_variadic_args_t@1@AEAV?$allocator@D@1@@Z ; std::_Compressed_pair<std::allocator<char>,std::_String_val<std::_Simple_types<char> >,1>::_Compressed_pair<std::allocator<char>,std::_String_val<std::_Simple_types<char> >,1><std::allocator<char> &>
PUBLIC	??$_Allocators_equal@V?$allocator@D@std@@@std@@YA_NAEBV?$allocator@D@0@0@Z ; std::_Allocators_equal<std::allocator<char> >
PUBLIC	?deallocate@?$_Default_allocator_traits@V?$allocator@U_Container_proxy@std@@@std@@@std@@SAXAEAV?$allocator@U_Container_proxy@std@@@2@QEAU_Container_proxy@2@_K@Z ; std::_Default_allocator_traits<std::allocator<std::_Container_proxy> >::deallocate
PUBLIC	??$_Get_unwrapped@AEBQEAUop@@@std@@YA?A_TAEBQEAUop@@@Z ; std::_Get_unwrapped<op * const &>
PUBLIC	??0?$_Uninitialized_backout_al@V?$allocator@Uop@@@std@@@std@@QEAA@PEAUop@@AEAV?$allocator@Uop@@@1@@Z ; std::_Uninitialized_backout_al<std::allocator<op> >::_Uninitialized_backout_al<std::allocator<op> >
PUBLIC	??1?$_Uninitialized_backout_al@V?$allocator@Uop@@@std@@@std@@QEAA@XZ ; std::_Uninitialized_backout_al<std::allocator<op> >::~_Uninitialized_backout_al<std::allocator<op> >
PUBLIC	?_Release@?$_Uninitialized_backout_al@V?$allocator@Uop@@@std@@@std@@QEAAPEAUop@@XZ ; std::_Uninitialized_backout_al<std::allocator<op> >::_Release
PUBLIC	?__autoclassinit2@?$_Uninitialized_backout_al@V?$allocator@Uop@@@std@@@std@@QEAAX_K@Z ; std::_Uninitialized_backout_al<std::allocator<op> >::__autoclassinit2
PUBLIC	??$_Emplace_back@AEAUop@@@?$_Uninitialized_backout_al@V?$allocator@Uop@@@std@@@std@@QEAAXAEAUop@@@Z ; std::_Uninitialized_backout_al<std::allocator<op> >::_Emplace_back<op &>
PUBLIC	??$_Get_unwrapped@AEBQEAPEAVnode@@@std@@YA?A_TAEBQEAPEAVnode@@@Z ; std::_Get_unwrapped<node * * const &>
PUBLIC	??$move@AEAPEAVnode@@@std@@YA$$QEAPEAVnode@@AEAPEAV1@@Z ; std::move<node * &>
PUBLIC	??$_Copy_memmove@PEAPEAVnode@@PEAPEAV1@@std@@YAPEAPEAVnode@@PEAPEAV1@00@Z ; std::_Copy_memmove<node * *,node * *>
PUBLIC	??0?$_Uninitialized_backout_al@V?$allocator@PEAVnode@@@std@@@std@@QEAA@PEAPEAVnode@@AEAV?$allocator@PEAVnode@@@1@@Z ; std::_Uninitialized_backout_al<std::allocator<node *> >::_Uninitialized_backout_al<std::allocator<node *> >
PUBLIC	??1?$_Uninitialized_backout_al@V?$allocator@PEAVnode@@@std@@@std@@QEAA@XZ ; std::_Uninitialized_backout_al<std::allocator<node *> >::~_Uninitialized_backout_al<std::allocator<node *> >
PUBLIC	?_Release@?$_Uninitialized_backout_al@V?$allocator@PEAVnode@@@std@@@std@@QEAAPEAPEAVnode@@XZ ; std::_Uninitialized_backout_al<std::allocator<node *> >::_Release
PUBLIC	?__autoclassinit2@?$_Uninitialized_backout_al@V?$allocator@PEAVnode@@@std@@@std@@QEAAX_K@Z ; std::_Uninitialized_backout_al<std::allocator<node *> >::__autoclassinit2
PUBLIC	??$_Emplace_back@PEAVnode@@@?$_Uninitialized_backout_al@V?$allocator@PEAVnode@@@std@@@std@@QEAAX$$QEAPEAVnode@@@Z ; std::_Uninitialized_backout_al<std::allocator<node *> >::_Emplace_back<node *>
PUBLIC	??$forward@AEAV?$allocator@D@std@@@std@@YAAEAV?$allocator@D@0@AEAV10@@Z ; std::forward<std::allocator<char> &>
PUBLIC	??$forward@AEAUop@@@std@@YAAEAUop@@AEAU1@@Z	; std::forward<op &>
PUBLIC	??$construct@Uop@@AEAU1@@?$_Default_allocator_traits@V?$allocator@Uop@@@std@@@std@@SAXAEAV?$allocator@Uop@@@1@QEAUop@@AEAU3@@Z ; std::_Default_allocator_traits<std::allocator<op> >::construct<op,op &>
PUBLIC	??$_To_address@PEAPEAVnode@@@std@@YA?A_PAEBQEAPEAVnode@@@Z ; std::_To_address<node * *>
PUBLIC	??$forward@PEAVnode@@@std@@YA$$QEAPEAVnode@@AEAPEAV1@@Z ; std::forward<node *>
PUBLIC	??$construct@PEAVnode@@PEAV1@@?$_Default_allocator_traits@V?$allocator@PEAVnode@@@std@@@std@@SAXAEAV?$allocator@PEAVnode@@@1@QEAPEAVnode@@$$QEAPEAV3@@Z ; std::_Default_allocator_traits<std::allocator<node *> >::construct<node *,node *>
PUBLIC	??$_Voidify_iter@PEAUop@@@std@@YAPEAXPEAUop@@@Z	; std::_Voidify_iter<op *>
PUBLIC	__JustMyCode_Default
PUBLIC	?_OptionsStorage@?1??__local_stdio_printf_options@@9@4_KA ; `__local_stdio_printf_options'::`2'::_OptionsStorage
PUBLIC	??_7exception@std@@6B@				; std::exception::`vftable'
PUBLIC	??_C@_0BC@EOODALEL@Unknown?5exception@		; `string'
PUBLIC	??_7bad_alloc@std@@6B@				; std::bad_alloc::`vftable'
PUBLIC	??_7bad_array_new_length@std@@6B@		; std::bad_array_new_length::`vftable'
PUBLIC	??_C@_0BF@KINCDENJ@bad?5array?5new?5length@	; `string'
PUBLIC	_TI3?AVbad_array_new_length@std@@
PUBLIC	_CTA3?AVbad_array_new_length@std@@
PUBLIC	??_R0?AVbad_array_new_length@std@@@8		; std::bad_array_new_length `RTTI Type Descriptor'
PUBLIC	_CT??_R0?AVbad_array_new_length@std@@@8??0bad_array_new_length@std@@QEAA@AEBV01@@Z24
PUBLIC	??_R0?AVbad_alloc@std@@@8			; std::bad_alloc `RTTI Type Descriptor'
PUBLIC	_CT??_R0?AVbad_alloc@std@@@8??0bad_alloc@std@@QEAA@AEBV01@@Z24
PUBLIC	??_R0?AVexception@std@@@8			; std::exception `RTTI Type Descriptor'
PUBLIC	_CT??_R0?AVexception@std@@@8??0exception@std@@QEAA@AEBV01@@Z24
PUBLIC	?__LINE__Var@?0??_Adjust_manually_vector_aligned@std@@YAXAEAPEAXAEA_K@Z@4JA ; `std::_Adjust_manually_vector_aligned'::`1'::__LINE__Var
PUBLIC	??_C@_0BB@FCMFBGOM@invalid?5argument@		; `string'
PUBLIC	??_C@_02DKCKIIND@?$CFs@				; `string'
PUBLIC	??_C@_0GI@MNEMJBML@C?3?2Program?5Files?5?$CIx86?$CJ?2Microsof@ ; `string'
PUBLIC	??_C@_1NA@MJBOBEJL@?$AAC?$AA?3?$AA?2?$AAP?$AAr?$AAo?$AAg?$AAr?$AAa?$AAm?$AA?5?$AAF?$AAi?$AAl?$AAe@ ; `string'
PUBLIC	??_C@_1EK@NIFDJFDG@?$AAs?$AAt?$AAd?$AA?3?$AA?3?$AA_?$AAA?$AAd?$AAj?$AAu?$AAs?$AAt?$AA_?$AAm?$AAa@ ; `string'
PUBLIC	??_C@_1CG@JNLFBNGN@?$AA?$CC?$AAi?$AAn?$AAv?$AAa?$AAl?$AAi?$AAd?$AA?5?$AAa?$AAr?$AAg?$AAu?$AAm?$AAe@ ; `string'
PUBLIC	??_C@_0BA@JFNIOLAK@string?5too?5long@		; `string'
PUBLIC	?_BUF_SIZE@?$basic_string@DU?$char_traits@D@std@@V?$allocator@D@2@@std@@0_KB ; std::basic_string<char,std::char_traits<char>,std::allocator<char> >::_BUF_SIZE
PUBLIC	??_C@_00CNPNBAHC@@				; `string'
PUBLIC	??_C@_02NJPGOMH@?$CFf@				; `string'
PUBLIC	??_C@_01PKGAHCOL@?$CJ@				; `string'
PUBLIC	??_C@_01CLKCMJKC@?5@				; `string'
PUBLIC	??_C@_01ODHLEDKK@?$CI@				; `string'
PUBLIC	_TI2PEAVexception@std@@
PUBLIC	_CTA2PEAVexception@std@@
PUBLIC	??_R0PEAVexception@std@@@8			; std::exception * `RTTI Type Descriptor'
PUBLIC	_CT??_R0PEAVexception@std@@@88
PUBLIC	??_R0PEAX@8					; void * `RTTI Type Descriptor'
PUBLIC	_CT??_R0PEAX@88
PUBLIC	??_C@_0CJ@CHLOGLPG@undefined?5operator?5in?5performOp@ ; `string'
PUBLIC	??_C@_01FJMABOPO@x@				; `string'
PUBLIC	??_C@_01EANLCPLP@y@				; `string'
PUBLIC	??_C@_01GLPGHMHM@z@				; `string'
PUBLIC	??_C@_0EP@FLJIJNCO@?$CI45?445?5?9?5x?5?$FO?5?92?$CJ?5?$CK?5?94563?445?5?9?5y@ ; `string'
PUBLIC	??_C@_0BJ@GBABLGIM@unexpected?5variable?5name@	; `string'
PUBLIC	??_C@_0L@GKOFOFEA@?6Numbers?3?6@		; `string'
PUBLIC	??_C@_0N@ELNFFMMN@?6Operators?3?6@		; `string'
PUBLIC	??_C@_0L@OPDGNCOI@?6Brackets?6@			; `string'
PUBLIC	??_C@_07BEFECKPA@?6Tree?3?6@			; `string'
PUBLIC	??_C@_0BB@NNEFPPLJ@?6Tree?5to?5string?6@	; `string'
PUBLIC	??_C@_0L@JILAODGG@?6Results?3?6@		; `string'
PUBLIC	??_C@_0DK@DDLKBKO@?$CD?$CD?$CD?$CD?$CD?$CD?$CD?$CD?$CD?$CD?$CD?$CD?$CD?$CD?$CD?$CD?$CD?$CD?$CD?$CD?$CD?$CD?$CD?$CD?$CD?$CD?$CD?$CD?$CD?$CD?$CD@ ; `string'
PUBLIC	??_C@_0BI@MLCIECCN@Generating?5random?5tree?6@	; `string'
PUBLIC	??_C@_04FOMPHDMB@?$CK?1?$CL?9@			; `string'
PUBLIC	??_C@_0BB@GEDOGCLG@?6random?5result?3?5@	; `string'
PUBLIC	??_C@_0BP@KGLJJIBC@front?$CI?$CJ?5called?5on?5empty?5vector@ ; `string'
PUBLIC	??_C@_0GH@KMHDIFOI@C?3?2Program?5Files?5?$CIx86?$CJ?2Microsof@ ; `string'
PUBLIC	??_C@_1MO@NOHEJINP@?$AAC?$AA?3?$AA?2?$AAP?$AAr?$AAo?$AAg?$AAr?$AAa?$AAm?$AA?5?$AAF?$AAi?$AAl?$AAe@ ; `string'
PUBLIC	??_C@_1IK@COOKACPM@?$AAs?$AAt?$AAd?$AA?3?$AA?3?$AAv?$AAe?$AAc?$AAt?$AAo?$AAr?$AA?$DM?$AAc?$AAl?$AAa@ ; `string'
PUBLIC	??_C@_1EC@GDGFILAB@?$AA?$CC?$AAf?$AAr?$AAo?$AAn?$AAt?$AA?$CI?$AA?$CJ?$AA?5?$AAc?$AAa?$AAl?$AAl?$AAe?$AAd@ ; `string'
PUBLIC	??_C@_0BO@PFKOHNJC@vector?5subscript?5out?5of?5range@ ; `string'
PUBLIC	??_C@_1IK@LEEOEPLD@?$AAs?$AAt?$AAd?$AA?3?$AA?3?$AAv?$AAe?$AAc?$AAt?$AAo?$AAr?$AA?$DM?$AAs?$AAt?$AAr@ ; `string'
PUBLIC	??_C@_1EA@LEKOKFNB@?$AA?$CC?$AAv?$AAe?$AAc?$AAt?$AAo?$AAr?$AA?5?$AAs?$AAu?$AAb?$AAs?$AAc?$AAr?$AAi@ ; `string'
PUBLIC	??_C@_1BME@NCIPHHDN@?$AAs?$AAt?$AAd?$AA?3?$AA?3?$AAv?$AAe?$AAc?$AAt?$AAo?$AAr?$AA?$DM?$AAc?$AAl?$AAa@ ; `string'
PUBLIC	??_C@_0BO@LFGPDMIB@string?5subscript?5out?5of?5range@ ; `string'
PUBLIC	??_C@_0GI@DEIBJNCC@C?3?2Program?5Files?5?$CIx86?$CJ?2Microsof@ ; `string'
PUBLIC	??_C@_1NA@CHJCONEK@?$AAC?$AA?3?$AA?2?$AAP?$AAr?$AAo?$AAg?$AAr?$AAa?$AAm?$AA?5?$AAF?$AAi?$AAl?$AAe@ ; `string'
PUBLIC	??_C@_1EA@OADAPGGK@?$AA?$CC?$AAs?$AAt?$AAr?$AAi?$AAn?$AAg?$AA?5?$AAs?$AAu?$AAb?$AAs?$AAc?$AAr?$AAi@ ; `string'
PUBLIC	??_C@_1LO@NPPEKPAI@?$AAs?$AAt?$AAd?$AA?3?$AA?3?$AAb?$AAa?$AAs?$AAi?$AAc?$AA_?$AAs?$AAt?$AAr?$AAi@ ; `string'
PUBLIC	??_C@_0BI@CFPLBAOH@invalid?5string?5position@	; `string'
PUBLIC	??_C@_0PC@KBJGOMJG@You?5cannot?5concatenate?5the?5same@ ; `string'
PUBLIC	??_C@_1CA@DFIMIFBJ@?$AAs?$AAt?$AAd?$AA?3?$AA?3?$AAo?$AAp?$AAe?$AAr?$AAa?$AAt?$AAo?$AAr?$AA?5?$AA?$CL@ ; `string'
PUBLIC	??_C@_1BPK@IDOEFEOL@?$AA?$CC?$AAY?$AAo?$AAu?$AA?5?$AAc?$AAa?$AAn?$AAn?$AAo?$AAt?$AA?5?$AAc?$AAo?$AAn@ ; `string'
PUBLIC	??_C@_0BA@FOIKENOD@vector?5too?5long@		; `string'
PUBLIC	??_C@_1EO@GFNCMDLA@?$AAs?$AAt?$AAd?$AA?3?$AA?3?$AA_?$AAA?$AAl?$AAl?$AAo?$AAc?$AAa?$AAt?$AAe?$AA_@ ; `string'
PUBLIC	??_R4exception@std@@6B@				; std::exception::`RTTI Complete Object Locator'
PUBLIC	??_R3exception@std@@8				; std::exception::`RTTI Class Hierarchy Descriptor'
PUBLIC	??_R2exception@std@@8				; std::exception::`RTTI Base Class Array'
PUBLIC	??_R1A@?0A@EA@exception@std@@8			; std::exception::`RTTI Base Class Descriptor at (0,-1,0,64)'
PUBLIC	??_R4bad_alloc@std@@6B@				; std::bad_alloc::`RTTI Complete Object Locator'
PUBLIC	??_R3bad_alloc@std@@8				; std::bad_alloc::`RTTI Class Hierarchy Descriptor'
PUBLIC	??_R2bad_alloc@std@@8				; std::bad_alloc::`RTTI Base Class Array'
PUBLIC	??_R1A@?0A@EA@bad_alloc@std@@8			; std::bad_alloc::`RTTI Base Class Descriptor at (0,-1,0,64)'
PUBLIC	??_R4bad_array_new_length@std@@6B@		; std::bad_array_new_length::`RTTI Complete Object Locator'
PUBLIC	??_R3bad_array_new_length@std@@8		; std::bad_array_new_length::`RTTI Class Hierarchy Descriptor'
PUBLIC	??_R2bad_array_new_length@std@@8		; std::bad_array_new_length::`RTTI Base Class Array'
PUBLIC	??_R1A@?0A@EA@bad_array_new_length@std@@8	; std::bad_array_new_length::`RTTI Base Class Descriptor at (0,-1,0,64)'
PUBLIC	__real@4000000000000000
PUBLIC	__real@4010000000000000
PUBLIC	__real@4014000000000000
PUBLIC	__real@4059000000000000
PUBLIC	__real@40dfffc000000000
PUBLIC	__real@c059000000000000
EXTRN	??2@YAPEAX_K@Z:PROC				; operator new
EXTRN	??3@YAXPEAX_K@Z:PROC				; operator delete
EXTRN	??_U@YAPEAX_K@Z:PROC				; operator new[]
EXTRN	??_V@YAXPEAX@Z:PROC				; operator delete[]
EXTRN	__imp__invalid_parameter:PROC
EXTRN	__imp__CrtDbgReport:PROC
EXTRN	__imp_??0_Lockit@std@@QEAA@H@Z:PROC
EXTRN	__imp_??1_Lockit@std@@QEAA@XZ:PROC
EXTRN	pow:PROC
EXTRN	__imp_atof:PROC
EXTRN	__imp_srand:PROC
EXTRN	__imp_rand:PROC
EXTRN	__imp___stdio_common_vsprintf:PROC
EXTRN	__imp___stdio_common_vsprintf_s:PROC
EXTRN	memcmp:PROC
EXTRN	memcpy:PROC
EXTRN	memmove:PROC
EXTRN	memset:PROC
EXTRN	strlen:PROC
EXTRN	?_Xlength_error@std@@YAXPEBD@Z:PROC		; std::_Xlength_error
EXTRN	?_Xout_of_range@std@@YAXPEBD@Z:PROC		; std::_Xout_of_range
EXTRN	?uncaught_exception@std@@YA_NXZ:PROC		; std::uncaught_exception
EXTRN	__std_exception_copy:PROC
EXTRN	__std_exception_destroy:PROC
EXTRN	??_Eexception@std@@UEAAPEAXI@Z:PROC		; std::exception::`vector deleting destructor'
EXTRN	??_Ebad_alloc@std@@UEAAPEAXI@Z:PROC		; std::bad_alloc::`vector deleting destructor'
EXTRN	??_Ebad_array_new_length@std@@UEAAPEAXI@Z:PROC	; std::bad_array_new_length::`vector deleting destructor'
EXTRN	__imp__time64:PROC
EXTRN	__imp_isdigit:PROC
EXTRN	__imp_?good@ios_base@std@@QEBA_NXZ:PROC
EXTRN	__imp_?flags@ios_base@std@@QEBAHXZ:PROC
EXTRN	__imp_?setf@ios_base@std@@QEAAHHH@Z:PROC
EXTRN	__imp_?width@ios_base@std@@QEBA_JXZ:PROC
EXTRN	__imp_?width@ios_base@std@@QEAA_J_J@Z:PROC
EXTRN	__imp_?sputc@?$basic_streambuf@DU?$char_traits@D@std@@@std@@QEAAHD@Z:PROC
EXTRN	__imp_?sputn@?$basic_streambuf@DU?$char_traits@D@std@@@std@@QEAA_JPEBD_J@Z:PROC
EXTRN	__imp_?setstate@?$basic_ios@DU?$char_traits@D@std@@@std@@QEAAXH_N@Z:PROC
EXTRN	__imp_?tie@?$basic_ios@DU?$char_traits@D@std@@@std@@QEBAPEAV?$basic_ostream@DU?$char_traits@D@std@@@2@XZ:PROC
EXTRN	__imp_?rdbuf@?$basic_ios@DU?$char_traits@D@std@@@std@@QEBAPEAV?$basic_streambuf@DU?$char_traits@D@std@@@2@XZ:PROC
EXTRN	__imp_?fill@?$basic_ios@DU?$char_traits@D@std@@@std@@QEBADXZ:PROC
EXTRN	__imp_?widen@?$basic_ios@DU?$char_traits@D@std@@@std@@QEBADD@Z:PROC
EXTRN	__imp_?_Osfx@?$basic_ostream@DU?$char_traits@D@std@@@std@@QEAAXXZ:PROC
EXTRN	__imp_??6?$basic_ostream@DU?$char_traits@D@std@@@std@@QEAAAEAV01@P6AAEAV01@AEAV01@@Z@Z:PROC
EXTRN	__imp_??6?$basic_ostream@DU?$char_traits@D@std@@@std@@QEAAAEAV01@P6AAEAVios_base@1@AEAV21@@Z@Z:PROC
EXTRN	__imp_??6?$basic_ostream@DU?$char_traits@D@std@@@std@@QEAAAEAV01@N@Z:PROC
EXTRN	__imp_?put@?$basic_ostream@DU?$char_traits@D@std@@@std@@QEAAAEAV12@D@Z:PROC
EXTRN	__imp_?flush@?$basic_ostream@DU?$char_traits@D@std@@@std@@QEAAAEAV12@XZ:PROC
EXTRN	??0expression@@QEAA@XZ:PROC			; expression::expression
EXTRN	?getOperators@expression@@QEAA?AV?$vector@Uop@@V?$allocator@Uop@@@std@@@std@@XZ:PROC ; expression::getOperators
EXTRN	?getNumbers@expression@@QEAA?AV?$vector@V?$basic_string@DU?$char_traits@D@std@@V?$allocator@D@2@@std@@V?$allocator@V?$basic_string@DU?$char_traits@D@std@@V?$allocator@D@2@@std@@@2@@std@@XZ:PROC ; expression::getNumbers
EXTRN	?addNumber@expression@@QEAAXV?$basic_string@DU?$char_traits@D@std@@V?$allocator@D@2@@std@@@Z:PROC ; expression::addNumber
EXTRN	?addOperator@expression@@QEAAXV?$basic_string@DU?$char_traits@D@std@@V?$allocator@D@2@@std@@@Z:PROC ; expression::addOperator
EXTRN	?openBraket@expression@@QEAAXXZ:PROC		; expression::openBraket
EXTRN	?closeBraket@expression@@QEAAXXZ:PROC		; expression::closeBraket
EXTRN	?print_numbers@expression@@QEBAXXZ:PROC		; expression::print_numbers
EXTRN	?print_operators@expression@@QEBAXXZ:PROC	; expression::print_operators
EXTRN	?print_brakets@expression@@QEBAXXZ:PROC		; expression::print_brakets
EXTRN	??0node@@QEAA@Uop@@@Z:PROC			; node::node
EXTRN	??0node@@QEAA@V?$basic_string@DU?$char_traits@D@std@@V?$allocator@D@2@@std@@@Z:PROC ; node::node
EXTRN	??1node@@QEAA@XZ:PROC				; node::~node
EXTRN	?isOperator@node@@QEBA_NXZ:PROC			; node::isOperator
EXTRN	?IsConstant@node@@QEBA_NXZ:PROC			; node::IsConstant
EXTRN	?getOperatorNumber@node@@QEBAHXZ:PROC		; node::getOperatorNumber
EXTRN	?getOperator@node@@QEBA?AUop@@XZ:PROC		; node::getOperator
EXTRN	?getConstant@node@@QEBA?AV?$basic_string@DU?$char_traits@D@std@@V?$allocator@D@2@@std@@XZ:PROC ; node::getConstant
EXTRN	_CxxThrowException:PROC
EXTRN	_RTC_CheckStackVars:PROC
EXTRN	_RTC_InitBase:PROC
EXTRN	_RTC_Shutdown:PROC
EXTRN	__CheckForDebuggerJustMyCode:PROC
EXTRN	__CxxFrameHandler4:PROC
EXTRN	__GSHandlerCheck:PROC
EXTRN	__GSHandlerCheck_EH4:PROC
EXTRN	__security_check_cookie:PROC
EXTRN	??_7type_info@@6B@:BYTE				; type_info::`vftable'
EXTRN	__imp_?cout@std@@3V?$basic_ostream@DU?$char_traits@D@std@@@1@A:BYTE
EXTRN	__ImageBase:BYTE
EXTRN	__security_cookie:QWORD
EXTRN	_fltused:DWORD
;	COMDAT ?_OptionsStorage@?1??__local_stdio_printf_options@@9@4_KA
_BSS	SEGMENT
?_OptionsStorage@?1??__local_stdio_printf_options@@9@4_KA DQ 01H DUP (?) ; `__local_stdio_printf_options'::`2'::_OptionsStorage
_BSS	ENDS
;	COMDAT pdata
pdata	SEGMENT
$pdata$?__empty_global_delete@@YAXPEAX@Z DD imagerel $LN3
	DD	imagerel $LN3+41
	DD	imagerel $unwind$?__empty_global_delete@@YAXPEAX@Z
pdata	ENDS
;	COMDAT pdata
pdata	SEGMENT
$pdata$?__empty_global_delete@@YAXPEAX_K@Z DD imagerel $LN3
	DD	imagerel $LN3+46
	DD	imagerel $unwind$?__empty_global_delete@@YAXPEAX_K@Z
pdata	ENDS
;	COMDAT pdata
pdata	SEGMENT
$pdata$??2@YAPEAX_KPEAX@Z DD imagerel $LN3
	DD	imagerel $LN3+53
	DD	imagerel $unwind$??2@YAPEAX_KPEAX@Z
pdata	ENDS
;	COMDAT pdata
pdata	SEGMENT
$pdata$__local_stdio_printf_options DD imagerel $LN3
	DD	imagerel $LN3+44
	DD	imagerel $unwind$__local_stdio_printf_options
pdata	ENDS
;	COMDAT pdata
pdata	SEGMENT
$pdata$_vsprintf_s_l DD imagerel $LN5
	DD	imagerel $LN5+151
	DD	imagerel $unwind$_vsprintf_s_l
pdata	ENDS
;	COMDAT pdata
pdata	SEGMENT
$pdata$_vscprintf_l DD imagerel $LN5
	DD	imagerel $LN5+144
	DD	imagerel $unwind$_vscprintf_l
pdata	ENDS
;	COMDAT pdata
pdata	SEGMENT
$pdata$sprintf_s DD imagerel $LN3
	DD	imagerel $LN3+196
	DD	imagerel $unwind$sprintf_s
pdata	ENDS
;	COMDAT pdata
pdata	SEGMENT
$pdata$_scprintf DD imagerel $LN3
	DD	imagerel $LN3+176
	DD	imagerel $unwind$_scprintf
pdata	ENDS
;	COMDAT pdata
pdata	SEGMENT
$pdata$??0exception@std@@QEAA@QEBD@Z DD imagerel $LN3
	DD	imagerel $LN3+210
	DD	imagerel $unwind$??0exception@std@@QEAA@QEBD@Z
pdata	ENDS
;	COMDAT pdata
pdata	SEGMENT
$pdata$??0exception@std@@QEAA@QEBDH@Z DD imagerel $LN3
	DD	imagerel $LN3+116
	DD	imagerel $unwind$??0exception@std@@QEAA@QEBDH@Z
pdata	ENDS
;	COMDAT pdata
pdata	SEGMENT
$pdata$??0exception@std@@QEAA@AEBV01@@Z DD imagerel $LN3
	DD	imagerel $LN3+123
	DD	imagerel $unwind$??0exception@std@@QEAA@AEBV01@@Z
pdata	ENDS
;	COMDAT pdata
pdata	SEGMENT
$pdata$??1exception@std@@UEAA@XZ DD imagerel $LN3
	DD	imagerel $LN3+77
	DD	imagerel $unwind$??1exception@std@@UEAA@XZ
pdata	ENDS
;	COMDAT pdata
pdata	SEGMENT
$pdata$?what@exception@std@@UEBAPEBDXZ DD imagerel $LN5
	DD	imagerel $LN5+96
	DD	imagerel $unwind$?what@exception@std@@UEBAPEBDXZ
pdata	ENDS
;	COMDAT pdata
pdata	SEGMENT
$pdata$??_Gexception@std@@UEAAPEAXI@Z DD imagerel $LN4
	DD	imagerel $LN4+82
	DD	imagerel $unwind$??_Gexception@std@@UEAAPEAXI@Z
pdata	ENDS
;	COMDAT pdata
pdata	SEGMENT
$pdata$??0bad_alloc@std@@AEAA@QEBD@Z DD imagerel $LN3
	DD	imagerel $LN3+95
	DD	imagerel $unwind$??0bad_alloc@std@@AEAA@QEBD@Z
pdata	ENDS
;	COMDAT pdata
pdata	SEGMENT
$pdata$??1bad_alloc@std@@UEAA@XZ DD imagerel $LN3
	DD	imagerel $LN3+41
	DD	imagerel $unwind$??1bad_alloc@std@@UEAA@XZ
pdata	ENDS
;	COMDAT pdata
pdata	SEGMENT
$pdata$??0bad_alloc@std@@QEAA@AEBV01@@Z DD imagerel $LN3
	DD	imagerel $LN3+77
	DD	imagerel $unwind$??0bad_alloc@std@@QEAA@AEBV01@@Z
pdata	ENDS
;	COMDAT pdata
pdata	SEGMENT
$pdata$??_Gbad_alloc@std@@UEAAPEAXI@Z DD imagerel $LN4
	DD	imagerel $LN4+82
	DD	imagerel $unwind$??_Gbad_alloc@std@@UEAAPEAXI@Z
pdata	ENDS
;	COMDAT pdata
pdata	SEGMENT
$pdata$??0bad_array_new_length@std@@QEAA@XZ DD imagerel $LN3
	DD	imagerel $LN3+84
	DD	imagerel $unwind$??0bad_array_new_length@std@@QEAA@XZ
pdata	ENDS
;	COMDAT pdata
pdata	SEGMENT
$pdata$??1bad_array_new_length@std@@UEAA@XZ DD imagerel $LN3
	DD	imagerel $LN3+41
	DD	imagerel $unwind$??1bad_array_new_length@std@@UEAA@XZ
pdata	ENDS
;	COMDAT pdata
pdata	SEGMENT
$pdata$??0bad_array_new_length@std@@QEAA@AEBV01@@Z DD imagerel $LN3
	DD	imagerel $LN3+77
	DD	imagerel $unwind$??0bad_array_new_length@std@@QEAA@AEBV01@@Z
pdata	ENDS
;	COMDAT pdata
pdata	SEGMENT
$pdata$??_Gbad_array_new_length@std@@UEAAPEAXI@Z DD imagerel $LN4
	DD	imagerel $LN4+82
	DD	imagerel $unwind$??_Gbad_array_new_length@std@@UEAAPEAXI@Z
pdata	ENDS
;	COMDAT pdata
pdata	SEGMENT
$pdata$?_Throw_bad_array_new_length@std@@YAXXZ DD imagerel $LN3
	DD	imagerel $LN3+68
	DD	imagerel $unwind$?_Throw_bad_array_new_length@std@@YAXXZ
pdata	ENDS
;	COMDAT pdata
pdata	SEGMENT
$pdata$?max@?$numeric_limits@_J@std@@SA_JXZ DD imagerel $LN3
	DD	imagerel $LN3+47
	DD	imagerel $unwind$?max@?$numeric_limits@_J@std@@SA_JXZ
pdata	ENDS
;	COMDAT pdata
pdata	SEGMENT
$pdata$?_Allocate@_Default_allocate_traits@std@@SAPEAX_K@Z DD imagerel $LN3
	DD	imagerel $LN3+53
	DD	imagerel $unwind$?_Allocate@_Default_allocate_traits@std@@SAPEAX_K@Z
pdata	ENDS
;	COMDAT pdata
pdata	SEGMENT
$pdata$?_Adjust_manually_vector_aligned@std@@YAXAEAPEAXAEA_K@Z DD imagerel $LN21
	DD	imagerel $LN21+453
	DD	imagerel $unwind$?_Adjust_manually_vector_aligned@std@@YAXAEAPEAXAEA_K@Z
pdata	ENDS
;	COMDAT pdata
pdata	SEGMENT
$pdata$??$_Convert_size@_K@std@@YA_K_K@Z DD imagerel $LN3
	DD	imagerel $LN3+48
	DD	imagerel $unwind$??$_Convert_size@_K@std@@YA_K_K@Z
pdata	ENDS
;	COMDAT pdata
pdata	SEGMENT
$pdata$??0_Container_proxy@std@@QEAA@PEAU_Container_base12@1@@Z DD imagerel $LN3
	DD	imagerel $LN3+85
	DD	imagerel $unwind$??0_Container_proxy@std@@QEAA@PEAU_Container_base12@1@@Z
pdata	ENDS
;	COMDAT pdata
pdata	SEGMENT
$pdata$??0_Container_base12@std@@QEAA@XZ DD imagerel $LN3
	DD	imagerel $LN3+62
	DD	imagerel $unwind$??0_Container_base12@std@@QEAA@XZ
pdata	ENDS
;	COMDAT pdata
pdata	SEGMENT
$pdata$?_Orphan_all@_Container_base12@std@@QEAAXXZ DD imagerel $LN3
	DD	imagerel $LN3+53
	DD	imagerel $unwind$?_Orphan_all@_Container_base12@std@@QEAAXXZ
pdata	ENDS
;	COMDAT pdata
pdata	SEGMENT
$pdata$?_Swap_proxy_and_iterators@_Container_base12@std@@QEAAXAEAU12@@Z DD imagerel $LN3
	DD	imagerel $LN3+65
	DD	imagerel $unwind$?_Swap_proxy_and_iterators@_Container_base12@std@@QEAAXAEAU12@@Z
pdata	ENDS
;	COMDAT pdata
pdata	SEGMENT
$pdata$?_Orphan_all_unlocked_v3@_Container_base12@std@@AEAAXXZ DD imagerel $LN7
	DD	imagerel $LN7+138
	DD	imagerel $unwind$?_Orphan_all_unlocked_v3@_Container_base12@std@@AEAAXXZ
pdata	ENDS
;	COMDAT pdata
pdata	SEGMENT
$pdata$?_Swap_proxy_and_iterators_unlocked@_Container_base12@std@@AEAAXAEAU12@@Z DD imagerel $LN5
	DD	imagerel $LN5+160
	DD	imagerel $unwind$?_Swap_proxy_and_iterators_unlocked@_Container_base12@std@@AEAAXAEAU12@@Z
pdata	ENDS
;	COMDAT pdata
pdata	SEGMENT
$pdata$?_Orphan_all_locked_v3@_Container_base12@std@@AEAAXXZ DD imagerel $LN3
	DD	imagerel $LN3+151
	DD	imagerel $unwind$?_Orphan_all_locked_v3@_Container_base12@std@@AEAAXXZ
pdata	ENDS
;	COMDAT pdata
pdata	SEGMENT
$pdata$?_Swap_proxy_and_iterators_locked@_Container_base12@std@@AEAAXAEAU12@@Z DD imagerel $LN3
	DD	imagerel $LN3+163
	DD	imagerel $unwind$?_Swap_proxy_and_iterators_locked@_Container_base12@std@@AEAAXAEAU12@@Z
pdata	ENDS
;	COMDAT pdata
pdata	SEGMENT
$pdata$?_Release@_Basic_container_proxy_ptr12@std@@QEAAXXZ DD imagerel $LN3
	DD	imagerel $LN3+55
	DD	imagerel $unwind$?_Release@_Basic_container_proxy_ptr12@std@@QEAAXXZ
pdata	ENDS
;	COMDAT pdata
pdata	SEGMENT
$pdata$??0_Basic_container_proxy_ptr12@std@@IEAA@XZ DD imagerel $LN3
	DD	imagerel $LN3+62
	DD	imagerel $unwind$??0_Basic_container_proxy_ptr12@std@@IEAA@XZ
pdata	ENDS
;	COMDAT pdata
pdata	SEGMENT
$pdata$??$addressof@U_Container_base12@std@@@std@@YAPEAU_Container_base12@0@AEAU10@@Z DD imagerel $LN3
	DD	imagerel $LN3+48
	DD	imagerel $unwind$??$addressof@U_Container_base12@std@@@std@@YAPEAU_Container_base12@0@AEAU10@@Z
pdata	ENDS
;	COMDAT pdata
pdata	SEGMENT
$pdata$??$_Construct_in_place@U_Container_proxy@std@@PEAU_Container_base12@2@@std@@YAXAEAU_Container_proxy@0@$$QEAPEAU_Container_base12@0@@Z DD imagerel $LN3
	DD	imagerel $LN3+113
	DD	imagerel $unwind$??$_Construct_in_place@U_Container_proxy@std@@PEAU_Container_base12@2@@std@@YAXAEAU_Container_proxy@0@$$QEAPEAU_Container_base12@0@@Z
pdata	ENDS
;	COMDAT pdata
pdata	SEGMENT
$pdata$?copy@?$_Char_traits@DH@std@@SAPEADQEADQEBD_K@Z DD imagerel $LN3
	DD	imagerel $LN3+84
	DD	imagerel $unwind$?copy@?$_Char_traits@DH@std@@SAPEADQEADQEBD_K@Z
pdata	ENDS
;	COMDAT pdata
pdata	SEGMENT
$pdata$?move@?$_Char_traits@DH@std@@SAPEADQEADQEBD_K@Z DD imagerel $LN3
	DD	imagerel $LN3+84
	DD	imagerel $unwind$?move@?$_Char_traits@DH@std@@SAPEADQEADQEBD_K@Z
pdata	ENDS
;	COMDAT pdata
pdata	SEGMENT
$pdata$?compare@?$_Narrow_char_traits@DH@std@@SAHQEBD0_K@Z DD imagerel $LN3
	DD	imagerel $LN3+77
	DD	imagerel $unwind$?compare@?$_Narrow_char_traits@DH@std@@SAHQEBD0_K@Z
pdata	ENDS
;	COMDAT pdata
pdata	SEGMENT
$pdata$?length@?$_Narrow_char_traits@DH@std@@SA_KQEBD@Z DD imagerel $LN3
	DD	imagerel $LN3+53
	DD	imagerel $unwind$?length@?$_Narrow_char_traits@DH@std@@SA_KQEBD@Z
pdata	ENDS
;	COMDAT pdata
pdata	SEGMENT
$pdata$?assign@?$_Narrow_char_traits@DH@std@@SAPEADQEAD_KD@Z DD imagerel $LN3
	DD	imagerel $LN3+79
	DD	imagerel $unwind$?assign@?$_Narrow_char_traits@DH@std@@SAPEADQEAD_KD@Z
pdata	ENDS
;	COMDAT pdata
pdata	SEGMENT
$pdata$?assign@?$_Narrow_char_traits@DH@std@@SAXAEADAEBD@Z DD imagerel $LN3
	DD	imagerel $LN3+65
	DD	imagerel $unwind$?assign@?$_Narrow_char_traits@DH@std@@SAXAEADAEBD@Z
pdata	ENDS
;	COMDAT pdata
pdata	SEGMENT
$pdata$?eq_int_type@?$_Narrow_char_traits@DH@std@@SA_NAEBH0@Z DD imagerel $LN5
	DD	imagerel $LN5+95
	DD	imagerel $unwind$?eq_int_type@?$_Narrow_char_traits@DH@std@@SA_NAEBH0@Z
pdata	ENDS
;	COMDAT pdata
pdata	SEGMENT
$pdata$?eof@?$_Narrow_char_traits@DH@std@@SAHXZ DD imagerel $LN3
	DD	imagerel $LN3+42
	DD	imagerel $unwind$?eof@?$_Narrow_char_traits@DH@std@@SAHXZ
pdata	ENDS
;	COMDAT pdata
pdata	SEGMENT
$pdata$?_Xlen_string@std@@YAXXZ DD imagerel $LN3
	DD	imagerel $LN3+49
	DD	imagerel $unwind$?_Xlen_string@std@@YAXXZ
pdata	ENDS
;	COMDAT pdata
pdata	SEGMENT
$pdata$??0?$allocator@D@std@@QEAA@XZ DD imagerel $LN3
	DD	imagerel $LN3+48
	DD	imagerel $unwind$??0?$allocator@D@std@@QEAA@XZ
pdata	ENDS
;	COMDAT pdata
pdata	SEGMENT
$pdata$?deallocate@?$allocator@D@std@@QEAAXQEAD_K@Z DD imagerel $LN3
	DD	imagerel $LN3+70
	DD	imagerel $unwind$?deallocate@?$allocator@D@std@@QEAAXQEAD_K@Z
pdata	ENDS
;	COMDAT pdata
pdata	SEGMENT
$pdata$?allocate@?$allocator@D@std@@QEAAPEAD_K@Z DD imagerel $LN3
	DD	imagerel $LN3+66
	DD	imagerel $unwind$?allocate@?$allocator@D@std@@QEAAPEAD_K@Z
pdata	ENDS
;	COMDAT pdata
pdata	SEGMENT
$pdata$?max_size@?$_Default_allocator_traits@V?$allocator@D@std@@@std@@SA_KAEBV?$allocator@D@2@@Z DD imagerel $LN3
	DD	imagerel $LN3+48
	DD	imagerel $unwind$?max_size@?$_Default_allocator_traits@V?$allocator@D@std@@@std@@SA_KAEBV?$allocator@D@2@@Z
pdata	ENDS
;	COMDAT pdata
pdata	SEGMENT
$pdata$?select_on_container_copy_construction@?$_Default_allocator_traits@V?$allocator@D@std@@@std@@SA?AV?$allocator@D@2@AEBV32@@Z DD imagerel $LN3
	DD	imagerel $LN3+53
	DD	imagerel $unwind$?select_on_container_copy_construction@?$_Default_allocator_traits@V?$allocator@D@std@@@std@@SA?AV?$allocator@D@2@AEBV32@@Z
pdata	ENDS
;	COMDAT pdata
pdata	SEGMENT
$pdata$??0?$_String_val@U?$_Simple_types@D@std@@@std@@QEAA@XZ DD imagerel $LN3
	DD	imagerel $LN3+109
	DD	imagerel $unwind$??0?$_String_val@U?$_Simple_types@D@std@@@std@@QEAA@XZ
pdata	ENDS
;	COMDAT pdata
pdata	SEGMENT
$pdata$?_Myptr@?$_String_val@U?$_Simple_types@D@std@@@std@@QEAAPEADXZ DD imagerel $LN4
	DD	imagerel $LN4+99
	DD	imagerel $unwind$?_Myptr@?$_String_val@U?$_Simple_types@D@std@@@std@@QEAAPEADXZ
pdata	ENDS
;	COMDAT pdata
pdata	SEGMENT
$pdata$?_Myptr@?$_String_val@U?$_Simple_types@D@std@@@std@@QEBAPEBDXZ DD imagerel $LN4
	DD	imagerel $LN4+99
	DD	imagerel $unwind$?_Myptr@?$_String_val@U?$_Simple_types@D@std@@@std@@QEBAPEBDXZ
pdata	ENDS
;	COMDAT pdata
pdata	SEGMENT
$pdata$?_Large_string_engaged@?$_String_val@U?$_Simple_types@D@std@@@std@@QEBA_NXZ DD imagerel $LN5
	DD	imagerel $LN5+84
	DD	imagerel $unwind$?_Large_string_engaged@?$_String_val@U?$_Simple_types@D@std@@@std@@QEBA_NXZ
pdata	ENDS
;	COMDAT pdata
pdata	SEGMENT
$pdata$?_Check_offset@?$_String_val@U?$_Simple_types@D@std@@@std@@QEBAX_K@Z DD imagerel $LN4
	DD	imagerel $LN4+71
	DD	imagerel $unwind$?_Check_offset@?$_String_val@U?$_Simple_types@D@std@@@std@@QEBAX_K@Z
pdata	ENDS
;	COMDAT pdata
pdata	SEGMENT
$pdata$?_Check_offset_exclusive@?$_String_val@U?$_Simple_types@D@std@@@std@@QEBAX_K@Z DD imagerel $LN4
	DD	imagerel $LN4+71
	DD	imagerel $unwind$?_Check_offset_exclusive@?$_String_val@U?$_Simple_types@D@std@@@std@@QEBAX_K@Z
pdata	ENDS
;	COMDAT pdata
pdata	SEGMENT
$pdata$?_Xran@?$_String_val@U?$_Simple_types@D@std@@@std@@SAXXZ DD imagerel $LN3
	DD	imagerel $LN3+49
	DD	imagerel $unwind$?_Xran@?$_String_val@U?$_Simple_types@D@std@@@std@@SAXXZ
pdata	ENDS
;	COMDAT pdata
pdata	SEGMENT
$pdata$?_Clamp_suffix_size@?$_String_val@U?$_Simple_types@D@std@@@std@@QEBA_K_K0@Z DD imagerel $LN3
	DD	imagerel $LN3+101
	DD	imagerel $unwind$?_Clamp_suffix_size@?$_String_val@U?$_Simple_types@D@std@@@std@@QEBA_K_K0@Z
pdata	ENDS
;	COMDAT pdata
pdata	SEGMENT
$pdata$??0_Bxty@?$_String_val@U?$_Simple_types@D@std@@@std@@QEAA@XZ DD imagerel $LN3
	DD	imagerel $LN3+62
	DD	imagerel $unwind$??0_Bxty@?$_String_val@U?$_Simple_types@D@std@@@std@@QEAA@XZ
pdata	ENDS
;	COMDAT pdata
pdata	SEGMENT
$pdata$??1_Bxty@?$_String_val@U?$_Simple_types@D@std@@@std@@QEAA@XZ DD imagerel $LN3
	DD	imagerel $LN3+41
	DD	imagerel $unwind$??1_Bxty@?$_String_val@U?$_Simple_types@D@std@@@std@@QEAA@XZ
pdata	ENDS
;	COMDAT pdata
pdata	SEGMENT
$pdata$??1?$_String_val@U?$_Simple_types@D@std@@@std@@QEAA@XZ DD imagerel $LN3
	DD	imagerel $LN3+48
	DD	imagerel $unwind$??1?$_String_val@U?$_Simple_types@D@std@@@std@@QEAA@XZ
pdata	ENDS
;	COMDAT pdata
pdata	SEGMENT
$pdata$??0?$basic_string@DU?$char_traits@D@std@@V?$allocator@D@2@@std@@QEAA@AEBV01@@Z DD imagerel $LN5
	DD	imagerel $LN5+277
	DD	imagerel $unwind$??0?$basic_string@DU?$char_traits@D@std@@V?$allocator@D@2@@std@@QEAA@AEBV01@@Z
pdata	ENDS
;	COMDAT pdata
pdata	SEGMENT
$pdata$?dtor$0@?0???0?$basic_string@DU?$char_traits@D@std@@V?$allocator@D@2@@std@@QEAA@AEBV01@@Z@4HA DD imagerel ?dtor$0@?0???0?$basic_string@DU?$char_traits@D@std@@V?$allocator@D@2@@std@@QEAA@AEBV01@@Z@4HA
	DD	imagerel ?dtor$0@?0???0?$basic_string@DU?$char_traits@D@std@@V?$allocator@D@2@@std@@QEAA@AEBV01@@Z@4HA+39
	DD	imagerel $unwind$?dtor$0@?0???0?$basic_string@DU?$char_traits@D@std@@V?$allocator@D@2@@std@@QEAA@AEBV01@@Z@4HA
pdata	ENDS
;	COMDAT pdata
pdata	SEGMENT
$pdata$?dtor$1@?0???0?$basic_string@DU?$char_traits@D@std@@V?$allocator@D@2@@std@@QEAA@AEBV01@@Z@4HA DD imagerel ?dtor$1@?0???0?$basic_string@DU?$char_traits@D@std@@V?$allocator@D@2@@std@@QEAA@AEBV01@@Z@4HA
	DD	imagerel ?dtor$1@?0???0?$basic_string@DU?$char_traits@D@std@@V?$allocator@D@2@@std@@QEAA@AEBV01@@Z@4HA+36
	DD	imagerel $unwind$?dtor$1@?0???0?$basic_string@DU?$char_traits@D@std@@V?$allocator@D@2@@std@@QEAA@AEBV01@@Z@4HA
pdata	ENDS
;	COMDAT pdata
pdata	SEGMENT
$pdata$??0?$basic_string@DU?$char_traits@D@std@@V?$allocator@D@2@@std@@QEAA@XZ DD imagerel $LN3
	DD	imagerel $LN3+124
	DD	imagerel $unwind$??0?$basic_string@DU?$char_traits@D@std@@V?$allocator@D@2@@std@@QEAA@XZ
pdata	ENDS
;	COMDAT pdata
pdata	SEGMENT
$pdata$??0?$basic_string@DU?$char_traits@D@std@@V?$allocator@D@2@@std@@QEAA@AEBV01@_K1AEBV?$allocator@D@1@@Z DD imagerel $LN5
	DD	imagerel $LN5+293
	DD	imagerel $unwind$??0?$basic_string@DU?$char_traits@D@std@@V?$allocator@D@2@@std@@QEAA@AEBV01@_K1AEBV?$allocator@D@1@@Z
pdata	ENDS
;	COMDAT pdata
pdata	SEGMENT
$pdata$?dtor$0@?0???0?$basic_string@DU?$char_traits@D@std@@V?$allocator@D@2@@std@@QEAA@AEBV01@_K1AEBV?$allocator@D@1@@Z@4HA DD imagerel ?dtor$0@?0???0?$basic_string@DU?$char_traits@D@std@@V?$allocator@D@2@@std@@QEAA@AEBV01@_K1AEBV?$allocator@D@1@@Z@4HA
	DD	imagerel ?dtor$0@?0???0?$basic_string@DU?$char_traits@D@std@@V?$allocator@D@2@@std@@QEAA@AEBV01@_K1AEBV?$allocator@D@1@@Z@4HA+39
	DD	imagerel $unwind$?dtor$0@?0???0?$basic_string@DU?$char_traits@D@std@@V?$allocator@D@2@@std@@QEAA@AEBV01@_K1AEBV?$allocator@D@1@@Z@4HA
pdata	ENDS
;	COMDAT pdata
pdata	SEGMENT
$pdata$?dtor$1@?0???0?$basic_string@DU?$char_traits@D@std@@V?$allocator@D@2@@std@@QEAA@AEBV01@_K1AEBV?$allocator@D@1@@Z@4HA DD imagerel ?dtor$1@?0???0?$basic_string@DU?$char_traits@D@std@@V?$allocator@D@2@@std@@QEAA@AEBV01@_K1AEBV?$allocator@D@1@@Z@4HA
	DD	imagerel ?dtor$1@?0???0?$basic_string@DU?$char_traits@D@std@@V?$allocator@D@2@@std@@QEAA@AEBV01@_K1AEBV?$allocator@D@1@@Z@4HA+36
	DD	imagerel $unwind$?dtor$1@?0???0?$basic_string@DU?$char_traits@D@std@@V?$allocator@D@2@@std@@QEAA@AEBV01@_K1AEBV?$allocator@D@1@@Z@4HA
pdata	ENDS
;	COMDAT pdata
pdata	SEGMENT
$pdata$??0?$basic_string@DU?$char_traits@D@std@@V?$allocator@D@2@@std@@QEAA@QEBD@Z DD imagerel $LN5
	DD	imagerel $LN5+262
	DD	imagerel $unwind$??0?$basic_string@DU?$char_traits@D@std@@V?$allocator@D@2@@std@@QEAA@QEBD@Z
pdata	ENDS
;	COMDAT pdata
pdata	SEGMENT
$pdata$?dtor$0@?0???0?$basic_string@DU?$char_traits@D@std@@V?$allocator@D@2@@std@@QEAA@QEBD@Z@4HA DD imagerel ?dtor$0@?0???0?$basic_string@DU?$char_traits@D@std@@V?$allocator@D@2@@std@@QEAA@QEBD@Z@4HA
	DD	imagerel ?dtor$0@?0???0?$basic_string@DU?$char_traits@D@std@@V?$allocator@D@2@@std@@QEAA@QEBD@Z@4HA+39
	DD	imagerel $unwind$?dtor$0@?0???0?$basic_string@DU?$char_traits@D@std@@V?$allocator@D@2@@std@@QEAA@QEBD@Z@4HA
pdata	ENDS
;	COMDAT pdata
pdata	SEGMENT
$pdata$?dtor$1@?0???0?$basic_string@DU?$char_traits@D@std@@V?$allocator@D@2@@std@@QEAA@QEBD@Z@4HA DD imagerel ?dtor$1@?0???0?$basic_string@DU?$char_traits@D@std@@V?$allocator@D@2@@std@@QEAA@QEBD@Z@4HA
	DD	imagerel ?dtor$1@?0???0?$basic_string@DU?$char_traits@D@std@@V?$allocator@D@2@@std@@QEAA@QEBD@Z@4HA+36
	DD	imagerel $unwind$?dtor$1@?0???0?$basic_string@DU?$char_traits@D@std@@V?$allocator@D@2@@std@@QEAA@QEBD@Z@4HA
pdata	ENDS
;	COMDAT pdata
pdata	SEGMENT
$pdata$??0?$basic_string@DU?$char_traits@D@std@@V?$allocator@D@2@@std@@QEAA@_KD@Z DD imagerel $LN5
	DD	imagerel $LN5+275
	DD	imagerel $unwind$??0?$basic_string@DU?$char_traits@D@std@@V?$allocator@D@2@@std@@QEAA@_KD@Z
pdata	ENDS
;	COMDAT pdata
pdata	SEGMENT
$pdata$?dtor$0@?0???0?$basic_string@DU?$char_traits@D@std@@V?$allocator@D@2@@std@@QEAA@_KD@Z@4HA DD imagerel ?dtor$0@?0???0?$basic_string@DU?$char_traits@D@std@@V?$allocator@D@2@@std@@QEAA@_KD@Z@4HA
	DD	imagerel ?dtor$0@?0???0?$basic_string@DU?$char_traits@D@std@@V?$allocator@D@2@@std@@QEAA@_KD@Z@4HA+39
	DD	imagerel $unwind$?dtor$0@?0???0?$basic_string@DU?$char_traits@D@std@@V?$allocator@D@2@@std@@QEAA@_KD@Z@4HA
pdata	ENDS
;	COMDAT pdata
pdata	SEGMENT
$pdata$?dtor$1@?0???0?$basic_string@DU?$char_traits@D@std@@V?$allocator@D@2@@std@@QEAA@_KD@Z@4HA DD imagerel ?dtor$1@?0???0?$basic_string@DU?$char_traits@D@std@@V?$allocator@D@2@@std@@QEAA@_KD@Z@4HA
	DD	imagerel ?dtor$1@?0???0?$basic_string@DU?$char_traits@D@std@@V?$allocator@D@2@@std@@QEAA@_KD@Z@4HA+36
	DD	imagerel $unwind$?dtor$1@?0???0?$basic_string@DU?$char_traits@D@std@@V?$allocator@D@2@@std@@QEAA@_KD@Z@4HA
pdata	ENDS
;	COMDAT pdata
pdata	SEGMENT
$pdata$??0?$basic_string@DU?$char_traits@D@std@@V?$allocator@D@2@@std@@QEAA@$$QEAV01@@Z DD imagerel $LN3
	DD	imagerel $LN3+156
	DD	imagerel $unwind$??0?$basic_string@DU?$char_traits@D@std@@V?$allocator@D@2@@std@@QEAA@$$QEAV01@@Z
pdata	ENDS
;	COMDAT pdata
pdata	SEGMENT
$pdata$??0?$basic_string@DU?$char_traits@D@std@@V?$allocator@D@2@@std@@QEAA@U_String_constructor_concat_tag@1@AEBV01@QEBD_K23@Z DD imagerel $LN8
	DD	imagerel $LN8+677
	DD	imagerel $unwind$??0?$basic_string@DU?$char_traits@D@std@@V?$allocator@D@2@@std@@QEAA@U_String_constructor_concat_tag@1@AEBV01@QEBD_K23@Z
pdata	ENDS
;	COMDAT pdata
pdata	SEGMENT
$pdata$?dtor$0@?0???0?$basic_string@DU?$char_traits@D@std@@V?$allocator@D@2@@std@@QEAA@U_String_constructor_concat_tag@1@AEBV01@QEBD_K23@Z@4HA DD imagerel ?dtor$0@?0???0?$basic_string@DU?$char_traits@D@std@@V?$allocator@D@2@@std@@QEAA@U_String_constructor_concat_tag@1@AEBV01@QEBD_K23@Z@4HA
	DD	imagerel ?dtor$0@?0???0?$basic_string@DU?$char_traits@D@std@@V?$allocator@D@2@@std@@QEAA@U_String_constructor_concat_tag@1@AEBV01@QEBD_K23@Z@4HA+39
	DD	imagerel $unwind$?dtor$0@?0???0?$basic_string@DU?$char_traits@D@std@@V?$allocator@D@2@@std@@QEAA@U_String_constructor_concat_tag@1@AEBV01@QEBD_K23@Z@4HA
pdata	ENDS
;	COMDAT pdata
pdata	SEGMENT
$pdata$?dtor$1@?0???0?$basic_string@DU?$char_traits@D@std@@V?$allocator@D@2@@std@@QEAA@U_String_constructor_concat_tag@1@AEBV01@QEBD_K23@Z@4HA DD imagerel ?dtor$1@?0???0?$basic_string@DU?$char_traits@D@std@@V?$allocator@D@2@@std@@QEAA@U_String_constructor_concat_tag@1@AEBV01@QEBD_K23@Z@4HA
	DD	imagerel ?dtor$1@?0???0?$basic_string@DU?$char_traits@D@std@@V?$allocator@D@2@@std@@QEAA@U_String_constructor_concat_tag@1@AEBV01@QEBD_K23@Z@4HA+39
	DD	imagerel $unwind$?dtor$1@?0???0?$basic_string@DU?$char_traits@D@std@@V?$allocator@D@2@@std@@QEAA@U_String_constructor_concat_tag@1@AEBV01@QEBD_K23@Z@4HA
pdata	ENDS
;	COMDAT pdata
pdata	SEGMENT
$pdata$??0?$basic_string@DU?$char_traits@D@std@@V?$allocator@D@2@@std@@QEAA@U_String_constructor_concat_tag@1@AEAV01@1@Z DD imagerel $LN13
	DD	imagerel $LN13+1250
	DD	imagerel $unwind$??0?$basic_string@DU?$char_traits@D@std@@V?$allocator@D@2@@std@@QEAA@U_String_constructor_concat_tag@1@AEAV01@1@Z
pdata	ENDS
;	COMDAT pdata
pdata	SEGMENT
$pdata$?dtor$0@?0???0?$basic_string@DU?$char_traits@D@std@@V?$allocator@D@2@@std@@QEAA@U_String_constructor_concat_tag@1@AEAV01@1@Z@4HA DD imagerel ?dtor$0@?0???0?$basic_string@DU?$char_traits@D@std@@V?$allocator@D@2@@std@@QEAA@U_String_constructor_concat_tag@1@AEAV01@1@Z@4HA
	DD	imagerel ?dtor$0@?0???0?$basic_string@DU?$char_traits@D@std@@V?$allocator@D@2@@std@@QEAA@U_String_constructor_concat_tag@1@AEAV01@1@Z@4HA+39
	DD	imagerel $unwind$?dtor$0@?0???0?$basic_string@DU?$char_traits@D@std@@V?$allocator@D@2@@std@@QEAA@U_String_constructor_concat_tag@1@AEAV01@1@Z@4HA
pdata	ENDS
;	COMDAT pdata
pdata	SEGMENT
$pdata$?dtor$1@?0???0?$basic_string@DU?$char_traits@D@std@@V?$allocator@D@2@@std@@QEAA@U_String_constructor_concat_tag@1@AEAV01@1@Z@4HA DD imagerel ?dtor$1@?0???0?$basic_string@DU?$char_traits@D@std@@V?$allocator@D@2@@std@@QEAA@U_String_constructor_concat_tag@1@AEAV01@1@Z@4HA
	DD	imagerel ?dtor$1@?0???0?$basic_string@DU?$char_traits@D@std@@V?$allocator@D@2@@std@@QEAA@U_String_constructor_concat_tag@1@AEAV01@1@Z@4HA+39
	DD	imagerel $unwind$?dtor$1@?0???0?$basic_string@DU?$char_traits@D@std@@V?$allocator@D@2@@std@@QEAA@U_String_constructor_concat_tag@1@AEAV01@1@Z@4HA
pdata	ENDS
;	COMDAT pdata
pdata	SEGMENT
$pdata$?_Move_assign@?$basic_string@DU?$char_traits@D@std@@V?$allocator@D@2@@std@@AEAAXAEAV12@U_Equal_allocators@2@@Z DD imagerel $LN3
	DD	imagerel $LN3+131
	DD	imagerel $unwind$?_Move_assign@?$basic_string@DU?$char_traits@D@std@@V?$allocator@D@2@@std@@AEAAXAEAV12@U_Equal_allocators@2@@Z
pdata	ENDS
;	COMDAT pdata
pdata	SEGMENT
$pdata$??4?$basic_string@DU?$char_traits@D@std@@V?$allocator@D@2@@std@@QEAAAEAV01@$$QEAV01@@Z DD imagerel $LN4
	DD	imagerel $LN4+120
	DD	imagerel $unwind$??4?$basic_string@DU?$char_traits@D@std@@V?$allocator@D@2@@std@@QEAAAEAV01@$$QEAV01@@Z
pdata	ENDS
;	COMDAT pdata
pdata	SEGMENT
$pdata$?_Memcpy_val_from@?$basic_string@DU?$char_traits@D@std@@V?$allocator@D@2@@std@@AEAAXAEBV12@@Z DD imagerel $LN3
	DD	imagerel $LN3+111
	DD	imagerel $unwind$?_Memcpy_val_from@?$basic_string@DU?$char_traits@D@std@@V?$allocator@D@2@@std@@AEAAXAEBV12@@Z
pdata	ENDS
;	COMDAT pdata
pdata	SEGMENT
$pdata$?_Take_contents@?$basic_string@DU?$char_traits@D@std@@V?$allocator@D@2@@std@@AEAAXAEAV12@@Z DD imagerel $LN7
	DD	imagerel $LN7+332
	DD	imagerel $unwind$?_Take_contents@?$basic_string@DU?$char_traits@D@std@@V?$allocator@D@2@@std@@AEAAXAEAV12@@Z
pdata	ENDS
;	COMDAT pdata
pdata	SEGMENT
$pdata$?_Construct_lv_contents@?$basic_string@DU?$char_traits@D@std@@V?$allocator@D@2@@std@@AEAAXAEBV12@@Z DD imagerel $LN6
	DD	imagerel $LN6+480
	DD	imagerel $unwind$?_Construct_lv_contents@?$basic_string@DU?$char_traits@D@std@@V?$allocator@D@2@@std@@AEAAXAEBV12@@Z
pdata	ENDS
;	COMDAT pdata
pdata	SEGMENT
$pdata$??1?$basic_string@DU?$char_traits@D@std@@V?$allocator@D@2@@std@@QEAA@XZ DD imagerel $LN3
	DD	imagerel $LN3+214
	DD	imagerel $unwind$??1?$basic_string@DU?$char_traits@D@std@@V?$allocator@D@2@@std@@QEAA@XZ
pdata	ENDS
;	COMDAT pdata
pdata	SEGMENT
$pdata$?_Copy_assign@?$basic_string@DU?$char_traits@D@std@@V?$allocator@D@2@@std@@AEAAXAEBV12@U?$integral_constant@_N$0A@@2@@Z DD imagerel $LN3
	DD	imagerel $LN3+141
	DD	imagerel $unwind$?_Copy_assign@?$basic_string@DU?$char_traits@D@std@@V?$allocator@D@2@@std@@AEAAXAEBV12@U?$integral_constant@_N$0A@@2@@Z
pdata	ENDS
;	COMDAT pdata
pdata	SEGMENT
$pdata$??4?$basic_string@DU?$char_traits@D@std@@V?$allocator@D@2@@std@@QEAAAEAV01@AEBV01@@Z DD imagerel $LN4
	DD	imagerel $LN4+120
	DD	imagerel $unwind$??4?$basic_string@DU?$char_traits@D@std@@V?$allocator@D@2@@std@@QEAAAEAV01@AEBV01@@Z
pdata	ENDS
;	COMDAT pdata
pdata	SEGMENT
$pdata$?append@?$basic_string@DU?$char_traits@D@std@@V?$allocator@D@2@@std@@QEAAAEAV12@AEBV12@@Z DD imagerel $LN3
	DD	imagerel $LN3+87
	DD	imagerel $unwind$?append@?$basic_string@DU?$char_traits@D@std@@V?$allocator@D@2@@std@@QEAAAEAV12@AEBV12@@Z
pdata	ENDS
;	COMDAT pdata
pdata	SEGMENT
$pdata$?append@?$basic_string@DU?$char_traits@D@std@@V?$allocator@D@2@@std@@QEAAAEAV12@QEBD_K@Z DD imagerel $LN4
	DD	imagerel $LN4+303
	DD	imagerel $unwind$?append@?$basic_string@DU?$char_traits@D@std@@V?$allocator@D@2@@std@@QEAAAEAV12@QEBD_K@Z
pdata	ENDS
;	COMDAT pdata
pdata	SEGMENT
$pdata$?append@?$basic_string@DU?$char_traits@D@std@@V?$allocator@D@2@@std@@QEAAAEAV12@QEBD@Z DD imagerel $LN3
	DD	imagerel $LN3+88
	DD	imagerel $unwind$?append@?$basic_string@DU?$char_traits@D@std@@V?$allocator@D@2@@std@@QEAAAEAV12@QEBD@Z
pdata	ENDS
;	COMDAT pdata
pdata	SEGMENT
$pdata$?assign@?$basic_string@DU?$char_traits@D@std@@V?$allocator@D@2@@std@@QEAAAEAV12@AEBV12@_K_K@Z DD imagerel $LN3
	DD	imagerel $LN3+158
	DD	imagerel $unwind$?assign@?$basic_string@DU?$char_traits@D@std@@V?$allocator@D@2@@std@@QEAAAEAV12@AEBV12@_K_K@Z
pdata	ENDS
;	COMDAT pdata
pdata	SEGMENT
$pdata$?assign@?$basic_string@DU?$char_traits@D@std@@V?$allocator@D@2@@std@@QEAAAEAV12@QEBD_K@Z DD imagerel $LN4
	DD	imagerel $LN4+232
	DD	imagerel $unwind$?assign@?$basic_string@DU?$char_traits@D@std@@V?$allocator@D@2@@std@@QEAAAEAV12@QEBD_K@Z
pdata	ENDS
;	COMDAT pdata
pdata	SEGMENT
$pdata$?assign@?$basic_string@DU?$char_traits@D@std@@V?$allocator@D@2@@std@@QEAAAEAV12@QEBD@Z DD imagerel $LN3
	DD	imagerel $LN3+88
	DD	imagerel $unwind$?assign@?$basic_string@DU?$char_traits@D@std@@V?$allocator@D@2@@std@@QEAAAEAV12@QEBD@Z
pdata	ENDS
;	COMDAT pdata
pdata	SEGMENT
$pdata$?assign@?$basic_string@DU?$char_traits@D@std@@V?$allocator@D@2@@std@@QEAAAEAV12@_KD@Z DD imagerel $LN4
	DD	imagerel $LN4+234
	DD	imagerel $unwind$?assign@?$basic_string@DU?$char_traits@D@std@@V?$allocator@D@2@@std@@QEAAAEAV12@_KD@Z
pdata	ENDS
;	COMDAT pdata
pdata	SEGMENT
$pdata$?at@?$basic_string@DU?$char_traits@D@std@@V?$allocator@D@2@@std@@QEAAAEAD_K@Z DD imagerel $LN3
	DD	imagerel $LN3+90
	DD	imagerel $unwind$?at@?$basic_string@DU?$char_traits@D@std@@V?$allocator@D@2@@std@@QEAAAEAD_K@Z
pdata	ENDS
;	COMDAT pdata
pdata	SEGMENT
$pdata$??A?$basic_string@DU?$char_traits@D@std@@V?$allocator@D@2@@std@@QEAAAEAD_K@Z DD imagerel $LN12
	DD	imagerel $LN12+207
	DD	imagerel $unwind$??A?$basic_string@DU?$char_traits@D@std@@V?$allocator@D@2@@std@@QEAAAEAD_K@Z
pdata	ENDS
;	COMDAT pdata
pdata	SEGMENT
$pdata$?c_str@?$basic_string@DU?$char_traits@D@std@@V?$allocator@D@2@@std@@QEBAPEBDXZ DD imagerel $LN3
	DD	imagerel $LN3+56
	DD	imagerel $unwind$?c_str@?$basic_string@DU?$char_traits@D@std@@V?$allocator@D@2@@std@@QEBAPEBDXZ
pdata	ENDS
;	COMDAT pdata
pdata	SEGMENT
$pdata$?data@?$basic_string@DU?$char_traits@D@std@@V?$allocator@D@2@@std@@QEBAPEBDXZ DD imagerel $LN3
	DD	imagerel $LN3+56
	DD	imagerel $unwind$?data@?$basic_string@DU?$char_traits@D@std@@V?$allocator@D@2@@std@@QEBAPEBDXZ
pdata	ENDS
;	COMDAT pdata
pdata	SEGMENT
$pdata$?length@?$basic_string@DU?$char_traits@D@std@@V?$allocator@D@2@@std@@QEBA_KXZ DD imagerel $LN3
	DD	imagerel $LN3+52
	DD	imagerel $unwind$?length@?$basic_string@DU?$char_traits@D@std@@V?$allocator@D@2@@std@@QEBA_KXZ
pdata	ENDS
;	COMDAT pdata
pdata	SEGMENT
$pdata$?size@?$basic_string@DU?$char_traits@D@std@@V?$allocator@D@2@@std@@QEBA_KXZ DD imagerel $LN3
	DD	imagerel $LN3+52
	DD	imagerel $unwind$?size@?$basic_string@DU?$char_traits@D@std@@V?$allocator@D@2@@std@@QEBA_KXZ
pdata	ENDS
;	COMDAT pdata
pdata	SEGMENT
$pdata$?max_size@?$basic_string@DU?$char_traits@D@std@@V?$allocator@D@2@@std@@QEBA_KXZ DD imagerel $LN3
	DD	imagerel $LN3+226
	DD	imagerel $unwind$?max_size@?$basic_string@DU?$char_traits@D@std@@V?$allocator@D@2@@std@@QEBA_KXZ
pdata	ENDS
;	COMDAT pdata
pdata	SEGMENT
$pdata$?substr@?$basic_string@DU?$char_traits@D@std@@V?$allocator@D@2@@std@@QEBA?AV12@_K0@Z DD imagerel $LN5
	DD	imagerel $LN5+145
	DD	imagerel $unwind$?substr@?$basic_string@DU?$char_traits@D@std@@V?$allocator@D@2@@std@@QEBA?AV12@_K0@Z
pdata	ENDS
;	COMDAT pdata
pdata	SEGMENT
$pdata$?compare@?$basic_string@DU?$char_traits@D@std@@V?$allocator@D@2@@std@@QEBAHQEBD@Z DD imagerel $LN3
	DD	imagerel $LN3+113
	DD	imagerel $unwind$?compare@?$basic_string@DU?$char_traits@D@std@@V?$allocator@D@2@@std@@QEBAHQEBD@Z
pdata	ENDS
;	COMDAT pdata
pdata	SEGMENT
$pdata$?get_allocator@?$basic_string@DU?$char_traits@D@std@@V?$allocator@D@2@@std@@QEBA?AV?$allocator@D@2@XZ DD imagerel $LN3
	DD	imagerel $LN3+65
	DD	imagerel $unwind$?get_allocator@?$basic_string@DU?$char_traits@D@std@@V?$allocator@D@2@@std@@QEBA?AV?$allocator@D@2@XZ
pdata	ENDS
;	COMDAT pdata
pdata	SEGMENT
$pdata$?_Calculate_growth@?$basic_string@DU?$char_traits@D@std@@V?$allocator@D@2@@std@@CA_K_K00@Z DD imagerel $LN5
	DD	imagerel $LN5+271
	DD	imagerel $unwind$?_Calculate_growth@?$basic_string@DU?$char_traits@D@std@@V?$allocator@D@2@@std@@CA_K_K00@Z
pdata	ENDS
;	COMDAT pdata
pdata	SEGMENT
$pdata$?_Calculate_growth@?$basic_string@DU?$char_traits@D@std@@V?$allocator@D@2@@std@@AEBA_K_K@Z DD imagerel $LN3
	DD	imagerel $LN3+84
	DD	imagerel $unwind$?_Calculate_growth@?$basic_string@DU?$char_traits@D@std@@V?$allocator@D@2@@std@@AEBA_K_K@Z
pdata	ENDS
;	COMDAT pdata
pdata	SEGMENT
$pdata$?_Tidy_init@?$basic_string@DU?$char_traits@D@std@@V?$allocator@D@2@@std@@AEAAXXZ DD imagerel $LN3
	DD	imagerel $LN3+116
	DD	imagerel $unwind$?_Tidy_init@?$basic_string@DU?$char_traits@D@std@@V?$allocator@D@2@@std@@AEAAXXZ
pdata	ENDS
;	COMDAT pdata
pdata	SEGMENT
$pdata$?_Tidy_deallocate@?$basic_string@DU?$char_traits@D@std@@V?$allocator@D@2@@std@@AEAAXXZ DD imagerel $LN4
	DD	imagerel $LN4+232
	DD	imagerel $unwind$?_Tidy_deallocate@?$basic_string@DU?$char_traits@D@std@@V?$allocator@D@2@@std@@AEAAXXZ
pdata	ENDS
;	COMDAT pdata
pdata	SEGMENT
$pdata$?_Swap_proxy_and_iterators@?$basic_string@DU?$char_traits@D@std@@V?$allocator@D@2@@std@@AEAAXAEAV12@@Z DD imagerel $LN3
	DD	imagerel $LN3+68
	DD	imagerel $unwind$?_Swap_proxy_and_iterators@?$basic_string@DU?$char_traits@D@std@@V?$allocator@D@2@@std@@AEAAXAEAV12@@Z
pdata	ENDS
;	COMDAT pdata
pdata	SEGMENT
$pdata$?_Getal@?$basic_string@DU?$char_traits@D@std@@V?$allocator@D@2@@std@@AEAAAEAV?$allocator@D@2@XZ DD imagerel $LN3
	DD	imagerel $LN3+56
	DD	imagerel $unwind$?_Getal@?$basic_string@DU?$char_traits@D@std@@V?$allocator@D@2@@std@@AEAAAEAV?$allocator@D@2@XZ
pdata	ENDS
;	COMDAT pdata
pdata	SEGMENT
$pdata$?_Getal@?$basic_string@DU?$char_traits@D@std@@V?$allocator@D@2@@std@@AEBAAEBV?$allocator@D@2@XZ DD imagerel $LN3
	DD	imagerel $LN3+56
	DD	imagerel $unwind$?_Getal@?$basic_string@DU?$char_traits@D@std@@V?$allocator@D@2@@std@@AEBAAEBV?$allocator@D@2@XZ
pdata	ENDS
;	COMDAT pdata
pdata	SEGMENT
$pdata$?_Get_first@?$_Compressed_pair@V?$allocator@D@std@@V?$_String_val@U?$_Simple_types@D@std@@@2@$00@std@@QEAAAEAV?$allocator@D@2@XZ DD imagerel $LN3
	DD	imagerel $LN3+48
	DD	imagerel $unwind$?_Get_first@?$_Compressed_pair@V?$allocator@D@std@@V?$_String_val@U?$_Simple_types@D@std@@@2@$00@std@@QEAAAEAV?$allocator@D@2@XZ
pdata	ENDS
;	COMDAT pdata
pdata	SEGMENT
$pdata$?_Get_first@?$_Compressed_pair@V?$allocator@D@std@@V?$_String_val@U?$_Simple_types@D@std@@@2@$00@std@@QEBAAEBV?$allocator@D@2@XZ DD imagerel $LN3
	DD	imagerel $LN3+48
	DD	imagerel $unwind$?_Get_first@?$_Compressed_pair@V?$allocator@D@std@@V?$_String_val@U?$_Simple_types@D@std@@@2@$00@std@@QEBAAEBV?$allocator@D@2@XZ
pdata	ENDS
;	COMDAT pdata
pdata	SEGMENT
$pdata$??1?$_Compressed_pair@V?$allocator@D@std@@V?$_String_val@U?$_Simple_types@D@std@@@2@$00@std@@QEAA@XZ DD imagerel $LN3
	DD	imagerel $LN3+44
	DD	imagerel $unwind$??1?$_Compressed_pair@V?$allocator@D@std@@V?$_String_val@U?$_Simple_types@D@std@@@2@$00@std@@QEAA@XZ
pdata	ENDS
;	COMDAT pdata
pdata	SEGMENT
$pdata$??_G?$basic_string@DU?$char_traits@D@std@@V?$allocator@D@2@@std@@QEAAPEAXI@Z DD imagerel $LN4
	DD	imagerel $LN4+82
	DD	imagerel $unwind$??_G?$basic_string@DU?$char_traits@D@std@@V?$allocator@D@2@@std@@QEAAPEAXI@Z
pdata	ENDS
;	COMDAT pdata
pdata	SEGMENT
$pdata$time DD	imagerel time
	DD	imagerel time+54
	DD	imagerel $unwind$time
pdata	ENDS
;	COMDAT pdata
pdata	SEGMENT
$pdata$?fixed@std@@YAAEAVios_base@1@AEAV21@@Z DD imagerel $LN3
	DD	imagerel $LN3+72
	DD	imagerel $unwind$?fixed@std@@YAAEAVios_base@1@AEAV21@@Z
pdata	ENDS
;	COMDAT pdata
pdata	SEGMENT
$pdata$?to_string@std@@YA?AV?$basic_string@DU?$char_traits@D@std@@V?$allocator@D@2@@1@N@Z DD imagerel $LN6
	DD	imagerel $LN6+293
	DD	imagerel $unwind$?to_string@std@@YA?AV?$basic_string@DU?$char_traits@D@std@@V?$allocator@D@2@@1@N@Z
pdata	ENDS
;	COMDAT pdata
pdata	SEGMENT
$pdata$??0op@@QEAA@V?$basic_string@DU?$char_traits@D@std@@V?$allocator@D@2@@std@@@Z DD imagerel $LN5
	DD	imagerel $LN5+118
	DD	imagerel $unwind$??0op@@QEAA@V?$basic_string@DU?$char_traits@D@std@@V?$allocator@D@2@@std@@@Z
pdata	ENDS
;	COMDAT pdata
pdata	SEGMENT
$pdata$?dtor$0@?0???0op@@QEAA@V?$basic_string@DU?$char_traits@D@std@@V?$allocator@D@2@@std@@@Z@4HA DD imagerel ?dtor$0@?0???0op@@QEAA@V?$basic_string@DU?$char_traits@D@std@@V?$allocator@D@2@@std@@@Z@4HA
	DD	imagerel ?dtor$0@?0???0op@@QEAA@V?$basic_string@DU?$char_traits@D@std@@V?$allocator@D@2@@std@@@Z@4HA+39
	DD	imagerel $unwind$?dtor$0@?0???0op@@QEAA@V?$basic_string@DU?$char_traits@D@std@@V?$allocator@D@2@@std@@@Z@4HA
pdata	ENDS
;	COMDAT pdata
pdata	SEGMENT
$pdata$?dtor$1@?0???0op@@QEAA@V?$basic_string@DU?$char_traits@D@std@@V?$allocator@D@2@@std@@@Z@4HA DD imagerel ?dtor$1@?0???0op@@QEAA@V?$basic_string@DU?$char_traits@D@std@@V?$allocator@D@2@@std@@@Z@4HA
	DD	imagerel ?dtor$1@?0???0op@@QEAA@V?$basic_string@DU?$char_traits@D@std@@V?$allocator@D@2@@std@@@Z@4HA+39
	DD	imagerel $unwind$?dtor$1@?0???0op@@QEAA@V?$basic_string@DU?$char_traits@D@std@@V?$allocator@D@2@@std@@@Z@4HA
pdata	ENDS
;	COMDAT pdata
pdata	SEGMENT
$pdata$??1op@@QEAA@XZ DD imagerel $LN3
	DD	imagerel $LN3+44
	DD	imagerel $unwind$??1op@@QEAA@XZ
pdata	ENDS
;	COMDAT pdata
pdata	SEGMENT
$pdata$??0op@@QEAA@AEBU0@@Z DD imagerel $LN4
	DD	imagerel $LN4+83
	DD	imagerel $unwind$??0op@@QEAA@AEBU0@@Z
pdata	ENDS
;	COMDAT pdata
pdata	SEGMENT
$pdata$??_Gop@@QEAAPEAXI@Z DD imagerel $LN4
	DD	imagerel $LN4+82
	DD	imagerel $unwind$??_Gop@@QEAAPEAXI@Z
pdata	ENDS
;	COMDAT pdata
pdata	SEGMENT
$pdata$?deallocate@?$allocator@V?$basic_string@DU?$char_traits@D@std@@V?$allocator@D@2@@std@@@std@@QEAAXQEAV?$basic_string@DU?$char_traits@D@std@@V?$allocator@D@2@@2@_K@Z DD imagerel $LN3
	DD	imagerel $LN3+74
	DD	imagerel $unwind$?deallocate@?$allocator@V?$basic_string@DU?$char_traits@D@std@@V?$allocator@D@2@@std@@@std@@QEAAXQEAV?$basic_string@DU?$char_traits@D@std@@V?$allocator@D@2@@2@_K@Z
pdata	ENDS
;	COMDAT pdata
pdata	SEGMENT
$pdata$??1?$vector@V?$basic_string@DU?$char_traits@D@std@@V?$allocator@D@2@@std@@V?$allocator@V?$basic_string@DU?$char_traits@D@std@@V?$allocator@D@2@@std@@@2@@std@@QEAA@XZ DD imagerel $LN3
	DD	imagerel $LN3+203
	DD	imagerel $unwind$??1?$vector@V?$basic_string@DU?$char_traits@D@std@@V?$allocator@D@2@@std@@V?$allocator@V?$basic_string@DU?$char_traits@D@std@@V?$allocator@D@2@@std@@@2@@std@@QEAA@XZ
pdata	ENDS
;	COMDAT pdata
pdata	SEGMENT
$pdata$??A?$vector@V?$basic_string@DU?$char_traits@D@std@@V?$allocator@D@2@@std@@V?$allocator@V?$basic_string@DU?$char_traits@D@std@@V?$allocator@D@2@@std@@@2@@std@@QEAAAEAV?$basic_string@DU?$char_traits@D@std@@V?$allocator@D@2@@1@_K@Z DD imagerel $LN12
	DD	imagerel $LN12+230
	DD	imagerel $unwind$??A?$vector@V?$basic_string@DU?$char_traits@D@std@@V?$allocator@D@2@@std@@V?$allocator@V?$basic_string@DU?$char_traits@D@std@@V?$allocator@D@2@@std@@@2@@std@@QEAAAEAV?$basic_string@DU?$char_traits@D@std@@V?$allocator@D@2@@1@_K@Z
pdata	ENDS
;	COMDAT pdata
pdata	SEGMENT
$pdata$?_Destroy@?$vector@V?$basic_string@DU?$char_traits@D@std@@V?$allocator@D@2@@std@@V?$allocator@V?$basic_string@DU?$char_traits@D@std@@V?$allocator@D@2@@std@@@2@@std@@AEAAXPEAV?$basic_string@DU?$char_traits@D@std@@V?$allocator@D@2@@2@0@Z DD imagerel $LN3
	DD	imagerel $LN3+85
	DD	imagerel $unwind$?_Destroy@?$vector@V?$basic_string@DU?$char_traits@D@std@@V?$allocator@D@2@@std@@V?$allocator@V?$basic_string@DU?$char_traits@D@std@@V?$allocator@D@2@@std@@@2@@std@@AEAAXPEAV?$basic_string@DU?$char_traits@D@std@@V?$allocator@D@2@@2@0@Z
pdata	ENDS
;	COMDAT pdata
pdata	SEGMENT
$pdata$?_Tidy@?$vector@V?$basic_string@DU?$char_traits@D@std@@V?$allocator@D@2@@std@@V?$allocator@V?$basic_string@DU?$char_traits@D@std@@V?$allocator@D@2@@std@@@2@@std@@AEAAXXZ DD imagerel $LN4
	DD	imagerel $LN4+241
	DD	imagerel $unwind$?_Tidy@?$vector@V?$basic_string@DU?$char_traits@D@std@@V?$allocator@D@2@@std@@V?$allocator@V?$basic_string@DU?$char_traits@D@std@@V?$allocator@D@2@@std@@@2@@std@@AEAAXXZ
pdata	ENDS
;	COMDAT pdata
pdata	SEGMENT
$pdata$?_Getal@?$vector@V?$basic_string@DU?$char_traits@D@std@@V?$allocator@D@2@@std@@V?$allocator@V?$basic_string@DU?$char_traits@D@std@@V?$allocator@D@2@@std@@@2@@std@@AEAAAEAV?$allocator@V?$basic_string@DU?$char_traits@D@std@@V?$allocator@D@2@@std@@@2@XZ DD imagerel $LN3
	DD	imagerel $LN3+56
	DD	imagerel $unwind$?_Getal@?$vector@V?$basic_string@DU?$char_traits@D@std@@V?$allocator@D@2@@std@@V?$allocator@V?$basic_string@DU?$char_traits@D@std@@V?$allocator@D@2@@std@@@2@@std@@AEAAAEAV?$allocator@V?$basic_string@DU?$char_traits@D@std@@V?$allocator@D@2@@std@@@2@XZ
pdata	ENDS
;	COMDAT pdata
pdata	SEGMENT
$pdata$?_Get_first@?$_Compressed_pair@V?$allocator@V?$basic_string@DU?$char_traits@D@std@@V?$allocator@D@2@@std@@@std@@V?$_Vector_val@U?$_Simple_types@V?$basic_string@DU?$char_traits@D@std@@V?$allocator@D@2@@std@@@std@@@2@$00@std@@QEAAAEAV?$allocator@V?$basic_string@DU?$char_traits@D@std@@V?$allocator@D@2@@std@@@2@XZ DD imagerel $LN3
	DD	imagerel $LN3+48
	DD	imagerel $unwind$?_Get_first@?$_Compressed_pair@V?$allocator@V?$basic_string@DU?$char_traits@D@std@@V?$allocator@D@2@@std@@@std@@V?$_Vector_val@U?$_Simple_types@V?$basic_string@DU?$char_traits@D@std@@V?$allocator@D@2@@std@@@std@@@2@$00@std@@QEAAAEAV?$allocator@V?$basic_string@DU?$char_traits@D@std@@V?$allocator@D@2@@std@@@2@XZ
pdata	ENDS
;	COMDAT pdata
pdata	SEGMENT
$pdata$?__autoclassinit2@?$vector@V?$basic_string@DU?$char_traits@D@std@@V?$allocator@D@2@@std@@V?$allocator@V?$basic_string@DU?$char_traits@D@std@@V?$allocator@D@2@@std@@@2@@std@@QEAAX_K@Z DD imagerel $LN3
	DD	imagerel $LN3+50
	DD	imagerel $unwind$?__autoclassinit2@?$vector@V?$basic_string@DU?$char_traits@D@std@@V?$allocator@D@2@@std@@V?$allocator@V?$basic_string@DU?$char_traits@D@std@@V?$allocator@D@2@@std@@@2@@std@@QEAAX_K@Z
pdata	ENDS
;	COMDAT pdata
pdata	SEGMENT
$pdata$?deallocate@?$allocator@Uop@@@std@@QEAAXQEAUop@@_K@Z DD imagerel $LN3
	DD	imagerel $LN3+74
	DD	imagerel $unwind$?deallocate@?$allocator@Uop@@@std@@QEAAXQEAUop@@_K@Z
pdata	ENDS
;	COMDAT pdata
pdata	SEGMENT
$pdata$?allocate@?$allocator@Uop@@@std@@QEAAPEAUop@@_K@Z DD imagerel $LN3
	DD	imagerel $LN3+66
	DD	imagerel $unwind$?allocate@?$allocator@Uop@@@std@@QEAAPEAUop@@_K@Z
pdata	ENDS
;	COMDAT pdata
pdata	SEGMENT
$pdata$?select_on_container_copy_construction@?$_Default_allocator_traits@V?$allocator@Uop@@@std@@@std@@SA?AV?$allocator@Uop@@@2@AEBV32@@Z DD imagerel $LN3
	DD	imagerel $LN3+53
	DD	imagerel $unwind$?select_on_container_copy_construction@?$_Default_allocator_traits@V?$allocator@Uop@@@std@@@std@@SA?AV?$allocator@Uop@@@2@AEBV32@@Z
pdata	ENDS
;	COMDAT pdata
pdata	SEGMENT
$pdata$??0?$vector@Uop@@V?$allocator@Uop@@@std@@@std@@QEAA@AEBV01@@Z DD imagerel $LN6
	DD	imagerel $LN6+451
	DD	imagerel $unwind$??0?$vector@Uop@@V?$allocator@Uop@@@std@@@std@@QEAA@AEBV01@@Z
pdata	ENDS
;	COMDAT pdata
pdata	SEGMENT
$pdata$?dtor$0@?0???0?$vector@Uop@@V?$allocator@Uop@@@std@@@std@@QEAA@AEBV01@@Z@4HA DD imagerel ?dtor$0@?0???0?$vector@Uop@@V?$allocator@Uop@@@std@@@std@@QEAA@AEBV01@@Z@4HA
	DD	imagerel ?dtor$0@?0???0?$vector@Uop@@V?$allocator@Uop@@@std@@@std@@QEAA@AEBV01@@Z@4HA+39
	DD	imagerel $unwind$?dtor$0@?0???0?$vector@Uop@@V?$allocator@Uop@@@std@@@std@@QEAA@AEBV01@@Z@4HA
pdata	ENDS
;	COMDAT pdata
pdata	SEGMENT
$pdata$?dtor$1@?0???0?$vector@Uop@@V?$allocator@Uop@@@std@@@std@@QEAA@AEBV01@@Z@4HA DD imagerel ?dtor$1@?0???0?$vector@Uop@@V?$allocator@Uop@@@std@@@std@@QEAA@AEBV01@@Z@4HA
	DD	imagerel ?dtor$1@?0???0?$vector@Uop@@V?$allocator@Uop@@@std@@@std@@QEAA@AEBV01@@Z@4HA+39
	DD	imagerel $unwind$?dtor$1@?0???0?$vector@Uop@@V?$allocator@Uop@@@std@@@std@@QEAA@AEBV01@@Z@4HA
pdata	ENDS
;	COMDAT pdata
pdata	SEGMENT
$pdata$??1?$vector@Uop@@V?$allocator@Uop@@@std@@@std@@QEAA@XZ DD imagerel $LN3
	DD	imagerel $LN3+203
	DD	imagerel $unwind$??1?$vector@Uop@@V?$allocator@Uop@@@std@@@std@@QEAA@XZ
pdata	ENDS
;	COMDAT pdata
pdata	SEGMENT
$pdata$?_Unchecked_begin@?$vector@Uop@@V?$allocator@Uop@@@std@@@std@@QEAAPEAUop@@XZ DD imagerel $LN3
	DD	imagerel $LN3+52
	DD	imagerel $unwind$?_Unchecked_begin@?$vector@Uop@@V?$allocator@Uop@@@std@@@std@@QEAAPEAUop@@XZ
pdata	ENDS
;	COMDAT pdata
pdata	SEGMENT
$pdata$?_Unchecked_end@?$vector@Uop@@V?$allocator@Uop@@@std@@@std@@QEAAPEAUop@@XZ DD imagerel $LN3
	DD	imagerel $LN3+52
	DD	imagerel $unwind$?_Unchecked_end@?$vector@Uop@@V?$allocator@Uop@@@std@@@std@@QEAAPEAUop@@XZ
pdata	ENDS
;	COMDAT pdata
pdata	SEGMENT
$pdata$?size@?$vector@Uop@@V?$allocator@Uop@@@std@@@std@@QEBA_KXZ DD imagerel $LN3
	DD	imagerel $LN3+81
	DD	imagerel $unwind$?size@?$vector@Uop@@V?$allocator@Uop@@@std@@@std@@QEBA_KXZ
pdata	ENDS
;	COMDAT pdata
pdata	SEGMENT
$pdata$??A?$vector@Uop@@V?$allocator@Uop@@@std@@@std@@QEAAAEAUop@@_K@Z DD imagerel $LN12
	DD	imagerel $LN12+230
	DD	imagerel $unwind$??A?$vector@Uop@@V?$allocator@Uop@@@std@@@std@@QEAAAEAUop@@_K@Z
pdata	ENDS
;	COMDAT pdata
pdata	SEGMENT
$pdata$?_Destroy@?$vector@Uop@@V?$allocator@Uop@@@std@@@std@@AEAAXPEAUop@@0@Z DD imagerel $LN3
	DD	imagerel $LN3+85
	DD	imagerel $unwind$?_Destroy@?$vector@Uop@@V?$allocator@Uop@@@std@@@std@@AEAAXPEAUop@@0@Z
pdata	ENDS
;	COMDAT pdata
pdata	SEGMENT
$pdata$?_Buy_raw@?$vector@Uop@@V?$allocator@Uop@@@std@@@std@@AEAAX_K@Z DD imagerel $LN3
	DD	imagerel $LN3+183
	DD	imagerel $unwind$?_Buy_raw@?$vector@Uop@@V?$allocator@Uop@@@std@@@std@@AEAAX_K@Z
pdata	ENDS
;	COMDAT pdata
pdata	SEGMENT
$pdata$?_Tidy@?$vector@Uop@@V?$allocator@Uop@@@std@@@std@@AEAAXXZ DD imagerel $LN4
	DD	imagerel $LN4+241
	DD	imagerel $unwind$?_Tidy@?$vector@Uop@@V?$allocator@Uop@@@std@@@std@@AEAAXXZ
pdata	ENDS
;	COMDAT pdata
pdata	SEGMENT
$pdata$?_Getal@?$vector@Uop@@V?$allocator@Uop@@@std@@@std@@AEAAAEAV?$allocator@Uop@@@2@XZ DD imagerel $LN3
	DD	imagerel $LN3+56
	DD	imagerel $unwind$?_Getal@?$vector@Uop@@V?$allocator@Uop@@@std@@@std@@AEAAAEAV?$allocator@Uop@@@2@XZ
pdata	ENDS
;	COMDAT pdata
pdata	SEGMENT
$pdata$?_Getal@?$vector@Uop@@V?$allocator@Uop@@@std@@@std@@AEBAAEBV?$allocator@Uop@@@2@XZ DD imagerel $LN3
	DD	imagerel $LN3+56
	DD	imagerel $unwind$?_Getal@?$vector@Uop@@V?$allocator@Uop@@@std@@@std@@AEBAAEBV?$allocator@Uop@@@2@XZ
pdata	ENDS
;	COMDAT pdata
pdata	SEGMENT
$pdata$??0?$_Vector_val@U?$_Simple_types@Uop@@@std@@@std@@QEAA@XZ DD imagerel $LN3
	DD	imagerel $LN3+105
	DD	imagerel $unwind$??0?$_Vector_val@U?$_Simple_types@Uop@@@std@@@std@@QEAA@XZ
pdata	ENDS
;	COMDAT pdata
pdata	SEGMENT
$pdata$?_Get_first@?$_Compressed_pair@V?$allocator@Uop@@@std@@V?$_Vector_val@U?$_Simple_types@Uop@@@std@@@2@$00@std@@QEAAAEAV?$allocator@Uop@@@2@XZ DD imagerel $LN3
	DD	imagerel $LN3+48
	DD	imagerel $unwind$?_Get_first@?$_Compressed_pair@V?$allocator@Uop@@@std@@V?$_Vector_val@U?$_Simple_types@Uop@@@std@@@2@$00@std@@QEAAAEAV?$allocator@Uop@@@2@XZ
pdata	ENDS
;	COMDAT pdata
pdata	SEGMENT
$pdata$?_Get_first@?$_Compressed_pair@V?$allocator@Uop@@@std@@V?$_Vector_val@U?$_Simple_types@Uop@@@std@@@2@$00@std@@QEBAAEBV?$allocator@Uop@@@2@XZ DD imagerel $LN3
	DD	imagerel $LN3+48
	DD	imagerel $unwind$?_Get_first@?$_Compressed_pair@V?$allocator@Uop@@@std@@V?$_Vector_val@U?$_Simple_types@Uop@@@std@@@2@$00@std@@QEBAAEBV?$allocator@Uop@@@2@XZ
pdata	ENDS
;	COMDAT pdata
pdata	SEGMENT
$pdata$?__autoclassinit2@?$vector@Uop@@V?$allocator@Uop@@@std@@@std@@QEAAX_K@Z DD imagerel $LN3
	DD	imagerel $LN3+50
	DD	imagerel $unwind$?__autoclassinit2@?$vector@Uop@@V?$allocator@Uop@@@std@@@std@@QEAAX_K@Z
pdata	ENDS
;	COMDAT pdata
pdata	SEGMENT
$pdata$?deallocate@?$allocator@Ubraket_group@@@std@@QEAAXQEAUbraket_group@@_K@Z DD imagerel $LN3
	DD	imagerel $LN3+77
	DD	imagerel $unwind$?deallocate@?$allocator@Ubraket_group@@@std@@QEAAXQEAUbraket_group@@_K@Z
pdata	ENDS
;	COMDAT pdata
pdata	SEGMENT
$pdata$??1?$vector@Ubraket_group@@V?$allocator@Ubraket_group@@@std@@@std@@QEAA@XZ DD imagerel $LN3
	DD	imagerel $LN3+203
	DD	imagerel $unwind$??1?$vector@Ubraket_group@@V?$allocator@Ubraket_group@@@std@@@std@@QEAA@XZ
pdata	ENDS
;	COMDAT pdata
pdata	SEGMENT
$pdata$?_Destroy@?$vector@Ubraket_group@@V?$allocator@Ubraket_group@@@std@@@std@@AEAAXPEAUbraket_group@@0@Z DD imagerel $LN3
	DD	imagerel $LN3+85
	DD	imagerel $unwind$?_Destroy@?$vector@Ubraket_group@@V?$allocator@Ubraket_group@@@std@@@std@@AEAAXPEAUbraket_group@@0@Z
pdata	ENDS
;	COMDAT pdata
pdata	SEGMENT
$pdata$?_Tidy@?$vector@Ubraket_group@@V?$allocator@Ubraket_group@@@std@@@std@@AEAAXXZ DD imagerel $LN4
	DD	imagerel $LN4+231
	DD	imagerel $unwind$?_Tidy@?$vector@Ubraket_group@@V?$allocator@Ubraket_group@@@std@@@std@@AEAAXXZ
pdata	ENDS
;	COMDAT pdata
pdata	SEGMENT
$pdata$?_Getal@?$vector@Ubraket_group@@V?$allocator@Ubraket_group@@@std@@@std@@AEAAAEAV?$allocator@Ubraket_group@@@2@XZ DD imagerel $LN3
	DD	imagerel $LN3+56
	DD	imagerel $unwind$?_Getal@?$vector@Ubraket_group@@V?$allocator@Ubraket_group@@@std@@@std@@AEAAAEAV?$allocator@Ubraket_group@@@2@XZ
pdata	ENDS
;	COMDAT pdata
pdata	SEGMENT
$pdata$?_Get_first@?$_Compressed_pair@V?$allocator@Ubraket_group@@@std@@V?$_Vector_val@U?$_Simple_types@Ubraket_group@@@std@@@2@$00@std@@QEAAAEAV?$allocator@Ubraket_group@@@2@XZ DD imagerel $LN3
	DD	imagerel $LN3+48
	DD	imagerel $unwind$?_Get_first@?$_Compressed_pair@V?$allocator@Ubraket_group@@@std@@V?$_Vector_val@U?$_Simple_types@Ubraket_group@@@std@@@2@$00@std@@QEAAAEAV?$allocator@Ubraket_group@@@2@XZ
pdata	ENDS
;	COMDAT pdata
pdata	SEGMENT
$pdata$??1expression@@QEAA@XZ DD imagerel $LN3
	DD	imagerel $LN3+82
	DD	imagerel $unwind$??1expression@@QEAA@XZ
pdata	ENDS
;	COMDAT pdata
pdata	SEGMENT
$pdata$?__autoclassinit2@expression@@QEAAX_K@Z DD imagerel $LN3
	DD	imagerel $LN3+50
	DD	imagerel $unwind$?__autoclassinit2@expression@@QEAAX_K@Z
pdata	ENDS
;	COMDAT pdata
pdata	SEGMENT
$pdata$??0token@@QEAA@XZ DD imagerel $LN3
	DD	imagerel $LN3+109
	DD	imagerel $unwind$??0token@@QEAA@XZ
pdata	ENDS
;	COMDAT pdata
pdata	SEGMENT
$pdata$??1token@@QEAA@XZ DD imagerel $LN3
	DD	imagerel $LN3+70
	DD	imagerel $unwind$??1token@@QEAA@XZ
pdata	ENDS
;	COMDAT pdata
pdata	SEGMENT
$pdata$?add@token@@QEAAXD@Z DD imagerel $LN3
	DD	imagerel $LN3+115
	DD	imagerel $unwind$?add@token@@QEAAXD@Z
pdata	ENDS
;	COMDAT pdata
pdata	SEGMENT
$pdata$?readString@token@@QEBA?AV?$basic_string@DU?$char_traits@D@std@@V?$allocator@D@2@@std@@XZ DD imagerel $LN6
	DD	imagerel $LN6+201
	DD	imagerel $unwind$?readString@token@@QEBA?AV?$basic_string@DU?$char_traits@D@std@@V?$allocator@D@2@@std@@XZ
pdata	ENDS
;	COMDAT pdata
pdata	SEGMENT
$pdata$?length@token@@QEBA_KXZ DD imagerel $LN3
	DD	imagerel $LN3+52
	DD	imagerel $unwind$?length@token@@QEBA_KXZ
pdata	ENDS
;	COMDAT pdata
pdata	SEGMENT
$pdata$?reset@token@@QEAAXXZ DD imagerel $LN3
	DD	imagerel $LN3+100
	DD	imagerel $unwind$?reset@token@@QEAAXXZ
pdata	ENDS
;	COMDAT pdata
pdata	SEGMENT
$pdata$?__autoclassinit2@token@@QEAAX_K@Z DD imagerel $LN3
	DD	imagerel $LN3+50
	DD	imagerel $unwind$?__autoclassinit2@token@@QEAAX_K@Z
pdata	ENDS
;	COMDAT pdata
pdata	SEGMENT
$pdata$?__autoclassinit2@node@@QEAAX_K@Z DD imagerel $LN3
	DD	imagerel $LN3+50
	DD	imagerel $unwind$?__autoclassinit2@node@@QEAAX_K@Z
pdata	ENDS
;	COMDAT pdata
pdata	SEGMENT
$pdata$??_Gnode@@QEAAPEAXI@Z DD imagerel $LN4
	DD	imagerel $LN4+82
	DD	imagerel $unwind$??_Gnode@@QEAAPEAXI@Z
pdata	ENDS
;	COMDAT pdata
pdata	SEGMENT
$pdata$??0?$allocator@PEAVnode@@@std@@QEAA@XZ DD imagerel $LN3
	DD	imagerel $LN3+48
	DD	imagerel $unwind$??0?$allocator@PEAVnode@@@std@@QEAA@XZ
pdata	ENDS
;	COMDAT pdata
pdata	SEGMENT
$pdata$?deallocate@?$allocator@PEAVnode@@@std@@QEAAXQEAPEAVnode@@_K@Z DD imagerel $LN3
	DD	imagerel $LN3+77
	DD	imagerel $unwind$?deallocate@?$allocator@PEAVnode@@@std@@QEAAXQEAPEAVnode@@_K@Z
pdata	ENDS
;	COMDAT pdata
pdata	SEGMENT
$pdata$?allocate@?$allocator@PEAVnode@@@std@@QEAAPEAPEAVnode@@_K@Z DD imagerel $LN3
	DD	imagerel $LN3+66
	DD	imagerel $unwind$?allocate@?$allocator@PEAVnode@@@std@@QEAAPEAPEAVnode@@_K@Z
pdata	ENDS
;	COMDAT pdata
pdata	SEGMENT
$pdata$?max_size@?$_Default_allocator_traits@V?$allocator@PEAVnode@@@std@@@std@@SA_KAEBV?$allocator@PEAVnode@@@2@@Z DD imagerel $LN3
	DD	imagerel $LN3+51
	DD	imagerel $unwind$?max_size@?$_Default_allocator_traits@V?$allocator@PEAVnode@@@std@@@std@@SA_KAEBV?$allocator@PEAVnode@@@2@@Z
pdata	ENDS
;	COMDAT pdata
pdata	SEGMENT
$pdata$??0?$vector@PEAVnode@@V?$allocator@PEAVnode@@@std@@@std@@QEAA@XZ DD imagerel $LN3
	DD	imagerel $LN3+112
	DD	imagerel $unwind$??0?$vector@PEAVnode@@V?$allocator@PEAVnode@@@std@@@std@@QEAA@XZ
pdata	ENDS
;	COMDAT pdata
pdata	SEGMENT
$pdata$??1?$vector@PEAVnode@@V?$allocator@PEAVnode@@@std@@@std@@QEAA@XZ DD imagerel $LN3
	DD	imagerel $LN3+203
	DD	imagerel $unwind$??1?$vector@PEAVnode@@V?$allocator@PEAVnode@@@std@@@std@@QEAA@XZ
pdata	ENDS
;	COMDAT pdata
pdata	SEGMENT
$pdata$?push_back@?$vector@PEAVnode@@V?$allocator@PEAVnode@@@std@@@std@@QEAAXAEBQEAVnode@@@Z DD imagerel $LN3
	DD	imagerel $LN3+65
	DD	imagerel $unwind$?push_back@?$vector@PEAVnode@@V?$allocator@PEAVnode@@@std@@@std@@QEAAXAEBQEAVnode@@@Z
pdata	ENDS
;	COMDAT pdata
pdata	SEGMENT
$pdata$?clear@?$vector@PEAVnode@@V?$allocator@PEAVnode@@@std@@@std@@QEAAXXZ DD imagerel $LN3
	DD	imagerel $LN3+125
	DD	imagerel $unwind$?clear@?$vector@PEAVnode@@V?$allocator@PEAVnode@@@std@@@std@@QEAAXXZ
pdata	ENDS
;	COMDAT pdata
pdata	SEGMENT
$pdata$?_Unchecked_begin@?$vector@PEAVnode@@V?$allocator@PEAVnode@@@std@@@std@@QEAAPEAPEAVnode@@XZ DD imagerel $LN3
	DD	imagerel $LN3+52
	DD	imagerel $unwind$?_Unchecked_begin@?$vector@PEAVnode@@V?$allocator@PEAVnode@@@std@@@std@@QEAAPEAPEAVnode@@XZ
pdata	ENDS
;	COMDAT pdata
pdata	SEGMENT
$pdata$?_Unchecked_end@?$vector@PEAVnode@@V?$allocator@PEAVnode@@@std@@@std@@QEAAPEAPEAVnode@@XZ DD imagerel $LN3
	DD	imagerel $LN3+52
	DD	imagerel $unwind$?_Unchecked_end@?$vector@PEAVnode@@V?$allocator@PEAVnode@@@std@@@std@@QEAAPEAPEAVnode@@XZ
pdata	ENDS
;	COMDAT pdata
pdata	SEGMENT
$pdata$?max_size@?$vector@PEAVnode@@V?$allocator@PEAVnode@@@std@@@std@@QEBA_KXZ DD imagerel $LN3
	DD	imagerel $LN3+102
	DD	imagerel $unwind$?max_size@?$vector@PEAVnode@@V?$allocator@PEAVnode@@@std@@@std@@QEBA_KXZ
pdata	ENDS
;	COMDAT pdata
pdata	SEGMENT
$pdata$?capacity@?$vector@PEAVnode@@V?$allocator@PEAVnode@@@std@@@std@@QEBA_KXZ DD imagerel $LN3
	DD	imagerel $LN3+75
	DD	imagerel $unwind$?capacity@?$vector@PEAVnode@@V?$allocator@PEAVnode@@@std@@@std@@QEBA_KXZ
pdata	ENDS
;	COMDAT pdata
pdata	SEGMENT
$pdata$?front@?$vector@PEAVnode@@V?$allocator@PEAVnode@@@std@@@std@@QEAAAEAPEAVnode@@XZ DD imagerel $LN12
	DD	imagerel $LN12+197
	DD	imagerel $unwind$?front@?$vector@PEAVnode@@V?$allocator@PEAVnode@@@std@@@std@@QEAAAEAPEAVnode@@XZ
pdata	ENDS
;	COMDAT pdata
pdata	SEGMENT
$pdata$?_Umove@?$vector@PEAVnode@@V?$allocator@PEAVnode@@@std@@@std@@AEAAPEAPEAVnode@@PEAPEAV3@00@Z DD imagerel $LN3
	DD	imagerel $LN3+97
	DD	imagerel $unwind$?_Umove@?$vector@PEAVnode@@V?$allocator@PEAVnode@@@std@@@std@@AEAAPEAPEAVnode@@PEAPEAV3@00@Z
pdata	ENDS
;	COMDAT pdata
pdata	SEGMENT
$pdata$?_Umove_if_noexcept1@?$vector@PEAVnode@@V?$allocator@PEAVnode@@@std@@@std@@AEAAXPEAPEAVnode@@00U?$integral_constant@_N$00@2@@Z DD imagerel $LN3
	DD	imagerel $LN3+97
	DD	imagerel $unwind$?_Umove_if_noexcept1@?$vector@PEAVnode@@V?$allocator@PEAVnode@@@std@@@std@@AEAAXPEAPEAVnode@@00U?$integral_constant@_N$00@2@@Z
pdata	ENDS
;	COMDAT pdata
pdata	SEGMENT
$pdata$?_Umove_if_noexcept@?$vector@PEAVnode@@V?$allocator@PEAVnode@@@std@@@std@@AEAAXPEAPEAVnode@@00@Z DD imagerel $LN3
	DD	imagerel $LN3+119
	DD	imagerel $unwind$?_Umove_if_noexcept@?$vector@PEAVnode@@V?$allocator@PEAVnode@@@std@@@std@@AEAAXPEAPEAVnode@@00@Z
pdata	ENDS
;	COMDAT pdata
pdata	SEGMENT
$pdata$?_Destroy@?$vector@PEAVnode@@V?$allocator@PEAVnode@@@std@@@std@@AEAAXPEAPEAVnode@@0@Z DD imagerel $LN3
	DD	imagerel $LN3+85
	DD	imagerel $unwind$?_Destroy@?$vector@PEAVnode@@V?$allocator@PEAVnode@@@std@@@std@@AEAAXPEAPEAVnode@@0@Z
pdata	ENDS
;	COMDAT pdata
pdata	SEGMENT
$pdata$?_Calculate_growth@?$vector@PEAVnode@@V?$allocator@PEAVnode@@@std@@@std@@AEBA_K_K@Z DD imagerel $LN5
	DD	imagerel $LN5+168
	DD	imagerel $unwind$?_Calculate_growth@?$vector@PEAVnode@@V?$allocator@PEAVnode@@@std@@@std@@AEBA_K_K@Z
pdata	ENDS
;	COMDAT pdata
pdata	SEGMENT
$pdata$?_Change_array@?$vector@PEAVnode@@V?$allocator@PEAVnode@@@std@@@std@@AEAAXQEAPEAVnode@@_K1@Z DD imagerel $LN4
	DD	imagerel $LN4+277
	DD	imagerel $unwind$?_Change_array@?$vector@PEAVnode@@V?$allocator@PEAVnode@@@std@@@std@@AEAAXQEAPEAVnode@@_K1@Z
pdata	ENDS
;	COMDAT pdata
pdata	SEGMENT
$pdata$?_Tidy@?$vector@PEAVnode@@V?$allocator@PEAVnode@@@std@@@std@@AEAAXXZ DD imagerel $LN4
	DD	imagerel $LN4+231
	DD	imagerel $unwind$?_Tidy@?$vector@PEAVnode@@V?$allocator@PEAVnode@@@std@@@std@@AEAAXXZ
pdata	ENDS
;	COMDAT pdata
pdata	SEGMENT
$pdata$?_Xlength@?$vector@PEAVnode@@V?$allocator@PEAVnode@@@std@@@std@@CAXXZ DD imagerel $LN3
	DD	imagerel $LN3+49
	DD	imagerel $unwind$?_Xlength@?$vector@PEAVnode@@V?$allocator@PEAVnode@@@std@@@std@@CAXXZ
pdata	ENDS
;	COMDAT pdata
pdata	SEGMENT
$pdata$?_Orphan_range_unlocked@?$vector@PEAVnode@@V?$allocator@PEAVnode@@@std@@@std@@AEBAXPEAPEAVnode@@0@Z DD imagerel $LN8
	DD	imagerel $LN8+184
	DD	imagerel $unwind$?_Orphan_range_unlocked@?$vector@PEAVnode@@V?$allocator@PEAVnode@@@std@@@std@@AEBAXPEAPEAVnode@@0@Z
pdata	ENDS
;	COMDAT pdata
pdata	SEGMENT
$pdata$?_Orphan_range_locked@?$vector@PEAVnode@@V?$allocator@PEAVnode@@@std@@@std@@AEBAXPEAPEAVnode@@0@Z DD imagerel $LN4
	DD	imagerel $LN4+177
	DD	imagerel $unwind$?_Orphan_range_locked@?$vector@PEAVnode@@V?$allocator@PEAVnode@@@std@@@std@@AEBAXPEAPEAVnode@@0@Z
pdata	ENDS
;	COMDAT pdata
pdata	SEGMENT
$pdata$?dtor$0@?0??_Orphan_range_locked@?$vector@PEAVnode@@V?$allocator@PEAVnode@@@std@@@std@@AEBAXPEAPEAVnode@@0@Z@4HA DD imagerel ?dtor$0@?0??_Orphan_range_locked@?$vector@PEAVnode@@V?$allocator@PEAVnode@@@std@@@std@@AEBAXPEAPEAVnode@@0@Z@4HA
	DD	imagerel ?dtor$0@?0??_Orphan_range_locked@?$vector@PEAVnode@@V?$allocator@PEAVnode@@@std@@@std@@AEBAXPEAPEAVnode@@0@Z@4HA+37
	DD	imagerel $unwind$?dtor$0@?0??_Orphan_range_locked@?$vector@PEAVnode@@V?$allocator@PEAVnode@@@std@@@std@@AEBAXPEAPEAVnode@@0@Z@4HA
pdata	ENDS
;	COMDAT pdata
pdata	SEGMENT
$pdata$?_Orphan_range@?$vector@PEAVnode@@V?$allocator@PEAVnode@@@std@@@std@@AEBAXPEAPEAVnode@@0@Z DD imagerel $LN3
	DD	imagerel $LN3+77
	DD	imagerel $unwind$?_Orphan_range@?$vector@PEAVnode@@V?$allocator@PEAVnode@@@std@@@std@@AEBAXPEAPEAVnode@@0@Z
pdata	ENDS
;	COMDAT pdata
pdata	SEGMENT
$pdata$?_Getal@?$vector@PEAVnode@@V?$allocator@PEAVnode@@@std@@@std@@AEAAAEAV?$allocator@PEAVnode@@@2@XZ DD imagerel $LN3
	DD	imagerel $LN3+56
	DD	imagerel $unwind$?_Getal@?$vector@PEAVnode@@V?$allocator@PEAVnode@@@std@@@std@@AEAAAEAV?$allocator@PEAVnode@@@2@XZ
pdata	ENDS
;	COMDAT pdata
pdata	SEGMENT
$pdata$?_Getal@?$vector@PEAVnode@@V?$allocator@PEAVnode@@@std@@@std@@AEBAAEBV?$allocator@PEAVnode@@@2@XZ DD imagerel $LN3
	DD	imagerel $LN3+56
	DD	imagerel $unwind$?_Getal@?$vector@PEAVnode@@V?$allocator@PEAVnode@@@std@@@std@@AEBAAEBV?$allocator@PEAVnode@@@2@XZ
pdata	ENDS
;	COMDAT pdata
pdata	SEGMENT
$pdata$??0?$_Vector_val@U?$_Simple_types@PEAVnode@@@std@@@std@@QEAA@XZ DD imagerel $LN3
	DD	imagerel $LN3+105
	DD	imagerel $unwind$??0?$_Vector_val@U?$_Simple_types@PEAVnode@@@std@@@std@@QEAA@XZ
pdata	ENDS
;	COMDAT pdata
pdata	SEGMENT
$pdata$?_Get_first@?$_Compressed_pair@V?$allocator@PEAVnode@@@std@@V?$_Vector_val@U?$_Simple_types@PEAVnode@@@std@@@2@$00@std@@QEAAAEAV?$allocator@PEAVnode@@@2@XZ DD imagerel $LN3
	DD	imagerel $LN3+48
	DD	imagerel $unwind$?_Get_first@?$_Compressed_pair@V?$allocator@PEAVnode@@@std@@V?$_Vector_val@U?$_Simple_types@PEAVnode@@@std@@@2@$00@std@@QEAAAEAV?$allocator@PEAVnode@@@2@XZ
pdata	ENDS
;	COMDAT pdata
pdata	SEGMENT
$pdata$?_Get_first@?$_Compressed_pair@V?$allocator@PEAVnode@@@std@@V?$_Vector_val@U?$_Simple_types@PEAVnode@@@std@@@2@$00@std@@QEBAAEBV?$allocator@PEAVnode@@@2@XZ DD imagerel $LN3
	DD	imagerel $LN3+48
	DD	imagerel $unwind$?_Get_first@?$_Compressed_pair@V?$allocator@PEAVnode@@@std@@V?$_Vector_val@U?$_Simple_types@PEAVnode@@@std@@@2@$00@std@@QEBAAEBV?$allocator@PEAVnode@@@2@XZ
pdata	ENDS
;	COMDAT pdata
pdata	SEGMENT
$pdata$?getNodeByNumber@binary_tree@@QEAAPEAVnode@@H@Z DD imagerel $LN7
	DD	imagerel $LN7+144
	DD	imagerel $unwind$?getNodeByNumber@binary_tree@@QEAAPEAVnode@@H@Z
pdata	ENDS
;	COMDAT pdata
pdata	SEGMENT
$pdata$??1binary_tree@@QEAA@XZ DD imagerel $LN8
	DD	imagerel $LN8+203
	DD	imagerel $unwind$??1binary_tree@@QEAA@XZ
pdata	ENDS
;	COMDAT pdata
pdata	SEGMENT
$pdata$??0binary_tree@@QEAA@XZ DD imagerel $LN3
	DD	imagerel $LN3+51
	DD	imagerel $unwind$??0binary_tree@@QEAA@XZ
pdata	ENDS
;	COMDAT pdata
pdata	SEGMENT
$pdata$??0tree_builder@@QEAA@PEAVexpression@@@Z DD imagerel $LN4
	DD	imagerel $LN4+104
	DD	imagerel $unwind$??0tree_builder@@QEAA@PEAVexpression@@@Z
pdata	ENDS
;	COMDAT pdata
pdata	SEGMENT
$pdata$?generate_random_tree@tree_builder@@QEAAXHV?$basic_string@DU?$char_traits@D@std@@V?$allocator@D@2@@std@@0@Z DD imagerel $LN13
	DD	imagerel $LN13+611
	DD	imagerel $unwind$?generate_random_tree@tree_builder@@QEAAXHV?$basic_string@DU?$char_traits@D@std@@V?$allocator@D@2@@std@@0@Z
pdata	ENDS
;	COMDAT pdata
pdata	SEGMENT
$pdata$?dtor$0@?0??generate_random_tree@tree_builder@@QEAAXHV?$basic_string@DU?$char_traits@D@std@@V?$allocator@D@2@@std@@0@Z@4HA DD imagerel ?dtor$0@?0??generate_random_tree@tree_builder@@QEAAXHV?$basic_string@DU?$char_traits@D@std@@V?$allocator@D@2@@std@@0@Z@4HA
	DD	imagerel ?dtor$0@?0??generate_random_tree@tree_builder@@QEAAXHV?$basic_string@DU?$char_traits@D@std@@V?$allocator@D@2@@std@@0@Z@4HA+39
	DD	imagerel $unwind$?dtor$0@?0??generate_random_tree@tree_builder@@QEAAXHV?$basic_string@DU?$char_traits@D@std@@V?$allocator@D@2@@std@@0@Z@4HA
pdata	ENDS
;	COMDAT pdata
pdata	SEGMENT
$pdata$?dtor$1@?0??generate_random_tree@tree_builder@@QEAAXHV?$basic_string@DU?$char_traits@D@std@@V?$allocator@D@2@@std@@0@Z@4HA DD imagerel ?dtor$1@?0??generate_random_tree@tree_builder@@QEAAXHV?$basic_string@DU?$char_traits@D@std@@V?$allocator@D@2@@std@@0@Z@4HA
	DD	imagerel ?dtor$1@?0??generate_random_tree@tree_builder@@QEAAXHV?$basic_string@DU?$char_traits@D@std@@V?$allocator@D@2@@std@@0@Z@4HA+39
	DD	imagerel $unwind$?dtor$1@?0??generate_random_tree@tree_builder@@QEAAXHV?$basic_string@DU?$char_traits@D@std@@V?$allocator@D@2@@std@@0@Z@4HA
pdata	ENDS
;	COMDAT pdata
pdata	SEGMENT
$pdata$?dtor$3@?0??generate_random_tree@tree_builder@@QEAAXHV?$basic_string@DU?$char_traits@D@std@@V?$allocator@D@2@@std@@0@Z@4HA DD imagerel ?dtor$3@?0??generate_random_tree@tree_builder@@QEAAXHV?$basic_string@DU?$char_traits@D@std@@V?$allocator@D@2@@std@@0@Z@4HA
	DD	imagerel ?dtor$3@?0??generate_random_tree@tree_builder@@QEAAXHV?$basic_string@DU?$char_traits@D@std@@V?$allocator@D@2@@std@@0@Z@4HA+36
	DD	imagerel $unwind$?dtor$3@?0??generate_random_tree@tree_builder@@QEAAXHV?$basic_string@DU?$char_traits@D@std@@V?$allocator@D@2@@std@@0@Z@4HA
pdata	ENDS
;	COMDAT pdata
pdata	SEGMENT
$pdata$?dtor$4@?0??generate_random_tree@tree_builder@@QEAAXHV?$basic_string@DU?$char_traits@D@std@@V?$allocator@D@2@@std@@0@Z@4HA DD imagerel ?dtor$4@?0??generate_random_tree@tree_builder@@QEAAXHV?$basic_string@DU?$char_traits@D@std@@V?$allocator@D@2@@std@@0@Z@4HA
	DD	imagerel ?dtor$4@?0??generate_random_tree@tree_builder@@QEAAXHV?$basic_string@DU?$char_traits@D@std@@V?$allocator@D@2@@std@@0@Z@4HA+44
	DD	imagerel $unwind$?dtor$4@?0??generate_random_tree@tree_builder@@QEAAXHV?$basic_string@DU?$char_traits@D@std@@V?$allocator@D@2@@std@@0@Z@4HA
pdata	ENDS
;	COMDAT pdata
pdata	SEGMENT
$pdata$?dtor$6@?0??generate_random_tree@tree_builder@@QEAAXHV?$basic_string@DU?$char_traits@D@std@@V?$allocator@D@2@@std@@0@Z@4HA DD imagerel ?dtor$6@?0??generate_random_tree@tree_builder@@QEAAXHV?$basic_string@DU?$char_traits@D@std@@V?$allocator@D@2@@std@@0@Z@4HA
	DD	imagerel ?dtor$6@?0??generate_random_tree@tree_builder@@QEAAXHV?$basic_string@DU?$char_traits@D@std@@V?$allocator@D@2@@std@@0@Z@4HA+39
	DD	imagerel $unwind$?dtor$6@?0??generate_random_tree@tree_builder@@QEAAXHV?$basic_string@DU?$char_traits@D@std@@V?$allocator@D@2@@std@@0@Z@4HA
pdata	ENDS
;	COMDAT pdata
pdata	SEGMENT
$pdata$?randomDouble@tree_builder@@QEAANNN@Z DD imagerel $LN3
	DD	imagerel $LN3+119
	DD	imagerel $unwind$?randomDouble@tree_builder@@QEAANNN@Z
pdata	ENDS
;	COMDAT pdata
pdata	SEGMENT
$pdata$?getrand@tree_builder@@QEAAH_K@Z DD imagerel $LN3
	DD	imagerel $LN3+66
	DD	imagerel $unwind$?getrand@tree_builder@@QEAAH_K@Z
pdata	ENDS
;	COMDAT pdata
pdata	SEGMENT
$pdata$?createLeftRightNodes@tree_builder@@QEAAXHV?$basic_string@DU?$char_traits@D@std@@V?$allocator@D@2@@std@@PEAVnode@@0@Z DD imagerel $LN49
	DD	imagerel $LN49+2302
	DD	imagerel $unwind$?createLeftRightNodes@tree_builder@@QEAAXHV?$basic_string@DU?$char_traits@D@std@@V?$allocator@D@2@@std@@PEAVnode@@0@Z
pdata	ENDS
;	COMDAT pdata
pdata	SEGMENT
$pdata$?dtor$0@?0??createLeftRightNodes@tree_builder@@QEAAXHV?$basic_string@DU?$char_traits@D@std@@V?$allocator@D@2@@std@@PEAVnode@@0@Z@4HA DD imagerel ?dtor$0@?0??createLeftRightNodes@tree_builder@@QEAAXHV?$basic_string@DU?$char_traits@D@std@@V?$allocator@D@2@@std@@PEAVnode@@0@Z@4HA
	DD	imagerel ?dtor$0@?0??createLeftRightNodes@tree_builder@@QEAAXHV?$basic_string@DU?$char_traits@D@std@@V?$allocator@D@2@@std@@PEAVnode@@0@Z@4HA+39
	DD	imagerel $unwind$?dtor$0@?0??createLeftRightNodes@tree_builder@@QEAAXHV?$basic_string@DU?$char_traits@D@std@@V?$allocator@D@2@@std@@PEAVnode@@0@Z@4HA
pdata	ENDS
;	COMDAT pdata
pdata	SEGMENT
$pdata$?dtor$1@?0??createLeftRightNodes@tree_builder@@QEAAXHV?$basic_string@DU?$char_traits@D@std@@V?$allocator@D@2@@std@@PEAVnode@@0@Z@4HA DD imagerel ?dtor$1@?0??createLeftRightNodes@tree_builder@@QEAAXHV?$basic_string@DU?$char_traits@D@std@@V?$allocator@D@2@@std@@PEAVnode@@0@Z@4HA
	DD	imagerel ?dtor$1@?0??createLeftRightNodes@tree_builder@@QEAAXHV?$basic_string@DU?$char_traits@D@std@@V?$allocator@D@2@@std@@PEAVnode@@0@Z@4HA+39
	DD	imagerel $unwind$?dtor$1@?0??createLeftRightNodes@tree_builder@@QEAAXHV?$basic_string@DU?$char_traits@D@std@@V?$allocator@D@2@@std@@PEAVnode@@0@Z@4HA
pdata	ENDS
;	COMDAT pdata
pdata	SEGMENT
$pdata$?dtor$2@?0??createLeftRightNodes@tree_builder@@QEAAXHV?$basic_string@DU?$char_traits@D@std@@V?$allocator@D@2@@std@@PEAVnode@@0@Z@4HA DD imagerel ?dtor$2@?0??createLeftRightNodes@tree_builder@@QEAAXHV?$basic_string@DU?$char_traits@D@std@@V?$allocator@D@2@@std@@PEAVnode@@0@Z@4HA
	DD	imagerel ?dtor$2@?0??createLeftRightNodes@tree_builder@@QEAAXHV?$basic_string@DU?$char_traits@D@std@@V?$allocator@D@2@@std@@PEAVnode@@0@Z@4HA+44
	DD	imagerel $unwind$?dtor$2@?0??createLeftRightNodes@tree_builder@@QEAAXHV?$basic_string@DU?$char_traits@D@std@@V?$allocator@D@2@@std@@PEAVnode@@0@Z@4HA
pdata	ENDS
;	COMDAT pdata
pdata	SEGMENT
$pdata$?dtor$4@?0??createLeftRightNodes@tree_builder@@QEAAXHV?$basic_string@DU?$char_traits@D@std@@V?$allocator@D@2@@std@@PEAVnode@@0@Z@4HA DD imagerel ?dtor$4@?0??createLeftRightNodes@tree_builder@@QEAAXHV?$basic_string@DU?$char_traits@D@std@@V?$allocator@D@2@@std@@PEAVnode@@0@Z@4HA
	DD	imagerel ?dtor$4@?0??createLeftRightNodes@tree_builder@@QEAAXHV?$basic_string@DU?$char_traits@D@std@@V?$allocator@D@2@@std@@PEAVnode@@0@Z@4HA+44
	DD	imagerel $unwind$?dtor$4@?0??createLeftRightNodes@tree_builder@@QEAAXHV?$basic_string@DU?$char_traits@D@std@@V?$allocator@D@2@@std@@PEAVnode@@0@Z@4HA
pdata	ENDS
;	COMDAT pdata
pdata	SEGMENT
$pdata$?dtor$6@?0??createLeftRightNodes@tree_builder@@QEAAXHV?$basic_string@DU?$char_traits@D@std@@V?$allocator@D@2@@std@@PEAVnode@@0@Z@4HA DD imagerel ?dtor$6@?0??createLeftRightNodes@tree_builder@@QEAAXHV?$basic_string@DU?$char_traits@D@std@@V?$allocator@D@2@@std@@PEAVnode@@0@Z@4HA
	DD	imagerel ?dtor$6@?0??createLeftRightNodes@tree_builder@@QEAAXHV?$basic_string@DU?$char_traits@D@std@@V?$allocator@D@2@@std@@PEAVnode@@0@Z@4HA+44
	DD	imagerel $unwind$?dtor$6@?0??createLeftRightNodes@tree_builder@@QEAAXHV?$basic_string@DU?$char_traits@D@std@@V?$allocator@D@2@@std@@PEAVnode@@0@Z@4HA
pdata	ENDS
;	COMDAT pdata
pdata	SEGMENT
$pdata$?dtor$8@?0??createLeftRightNodes@tree_builder@@QEAAXHV?$basic_string@DU?$char_traits@D@std@@V?$allocator@D@2@@std@@PEAVnode@@0@Z@4HA DD imagerel ?dtor$8@?0??createLeftRightNodes@tree_builder@@QEAAXHV?$basic_string@DU?$char_traits@D@std@@V?$allocator@D@2@@std@@PEAVnode@@0@Z@4HA
	DD	imagerel ?dtor$8@?0??createLeftRightNodes@tree_builder@@QEAAXHV?$basic_string@DU?$char_traits@D@std@@V?$allocator@D@2@@std@@PEAVnode@@0@Z@4HA+44
	DD	imagerel $unwind$?dtor$8@?0??createLeftRightNodes@tree_builder@@QEAAXHV?$basic_string@DU?$char_traits@D@std@@V?$allocator@D@2@@std@@PEAVnode@@0@Z@4HA
pdata	ENDS
;	COMDAT pdata
pdata	SEGMENT
$pdata$?dtor$11@?0??createLeftRightNodes@tree_builder@@QEAAXHV?$basic_string@DU?$char_traits@D@std@@V?$allocator@D@2@@std@@PEAVnode@@0@Z@4HA DD imagerel ?dtor$11@?0??createLeftRightNodes@tree_builder@@QEAAXHV?$basic_string@DU?$char_traits@D@std@@V?$allocator@D@2@@std@@PEAVnode@@0@Z@4HA
	DD	imagerel ?dtor$11@?0??createLeftRightNodes@tree_builder@@QEAAXHV?$basic_string@DU?$char_traits@D@std@@V?$allocator@D@2@@std@@PEAVnode@@0@Z@4HA+39
	DD	imagerel $unwind$?dtor$11@?0??createLeftRightNodes@tree_builder@@QEAAXHV?$basic_string@DU?$char_traits@D@std@@V?$allocator@D@2@@std@@PEAVnode@@0@Z@4HA
pdata	ENDS
;	COMDAT pdata
pdata	SEGMENT
$pdata$?dtor$12@?0??createLeftRightNodes@tree_builder@@QEAAXHV?$basic_string@DU?$char_traits@D@std@@V?$allocator@D@2@@std@@PEAVnode@@0@Z@4HA DD imagerel ?dtor$12@?0??createLeftRightNodes@tree_builder@@QEAAXHV?$basic_string@DU?$char_traits@D@std@@V?$allocator@D@2@@std@@PEAVnode@@0@Z@4HA
	DD	imagerel ?dtor$12@?0??createLeftRightNodes@tree_builder@@QEAAXHV?$basic_string@DU?$char_traits@D@std@@V?$allocator@D@2@@std@@PEAVnode@@0@Z@4HA+44
	DD	imagerel $unwind$?dtor$12@?0??createLeftRightNodes@tree_builder@@QEAAXHV?$basic_string@DU?$char_traits@D@std@@V?$allocator@D@2@@std@@PEAVnode@@0@Z@4HA
pdata	ENDS
;	COMDAT pdata
pdata	SEGMENT
$pdata$?dtor$15@?0??createLeftRightNodes@tree_builder@@QEAAXHV?$basic_string@DU?$char_traits@D@std@@V?$allocator@D@2@@std@@PEAVnode@@0@Z@4HA DD imagerel ?dtor$15@?0??createLeftRightNodes@tree_builder@@QEAAXHV?$basic_string@DU?$char_traits@D@std@@V?$allocator@D@2@@std@@PEAVnode@@0@Z@4HA
	DD	imagerel ?dtor$15@?0??createLeftRightNodes@tree_builder@@QEAAXHV?$basic_string@DU?$char_traits@D@std@@V?$allocator@D@2@@std@@PEAVnode@@0@Z@4HA+39
	DD	imagerel $unwind$?dtor$15@?0??createLeftRightNodes@tree_builder@@QEAAXHV?$basic_string@DU?$char_traits@D@std@@V?$allocator@D@2@@std@@PEAVnode@@0@Z@4HA
pdata	ENDS
;	COMDAT pdata
pdata	SEGMENT
$pdata$?dtor$16@?0??createLeftRightNodes@tree_builder@@QEAAXHV?$basic_string@DU?$char_traits@D@std@@V?$allocator@D@2@@std@@PEAVnode@@0@Z@4HA DD imagerel ?dtor$16@?0??createLeftRightNodes@tree_builder@@QEAAXHV?$basic_string@DU?$char_traits@D@std@@V?$allocator@D@2@@std@@PEAVnode@@0@Z@4HA
	DD	imagerel ?dtor$16@?0??createLeftRightNodes@tree_builder@@QEAAXHV?$basic_string@DU?$char_traits@D@std@@V?$allocator@D@2@@std@@PEAVnode@@0@Z@4HA+44
	DD	imagerel $unwind$?dtor$16@?0??createLeftRightNodes@tree_builder@@QEAAXHV?$basic_string@DU?$char_traits@D@std@@V?$allocator@D@2@@std@@PEAVnode@@0@Z@4HA
pdata	ENDS
;	COMDAT pdata
pdata	SEGMENT
$pdata$?dtor$18@?0??createLeftRightNodes@tree_builder@@QEAAXHV?$basic_string@DU?$char_traits@D@std@@V?$allocator@D@2@@std@@PEAVnode@@0@Z@4HA DD imagerel ?dtor$18@?0??createLeftRightNodes@tree_builder@@QEAAXHV?$basic_string@DU?$char_traits@D@std@@V?$allocator@D@2@@std@@PEAVnode@@0@Z@4HA
	DD	imagerel ?dtor$18@?0??createLeftRightNodes@tree_builder@@QEAAXHV?$basic_string@DU?$char_traits@D@std@@V?$allocator@D@2@@std@@PEAVnode@@0@Z@4HA+39
	DD	imagerel $unwind$?dtor$18@?0??createLeftRightNodes@tree_builder@@QEAAXHV?$basic_string@DU?$char_traits@D@std@@V?$allocator@D@2@@std@@PEAVnode@@0@Z@4HA
pdata	ENDS
;	COMDAT pdata
pdata	SEGMENT
$pdata$?dtor$20@?0??createLeftRightNodes@tree_builder@@QEAAXHV?$basic_string@DU?$char_traits@D@std@@V?$allocator@D@2@@std@@PEAVnode@@0@Z@4HA DD imagerel ?dtor$20@?0??createLeftRightNodes@tree_builder@@QEAAXHV?$basic_string@DU?$char_traits@D@std@@V?$allocator@D@2@@std@@PEAVnode@@0@Z@4HA
	DD	imagerel ?dtor$20@?0??createLeftRightNodes@tree_builder@@QEAAXHV?$basic_string@DU?$char_traits@D@std@@V?$allocator@D@2@@std@@PEAVnode@@0@Z@4HA+39
	DD	imagerel $unwind$?dtor$20@?0??createLeftRightNodes@tree_builder@@QEAAXHV?$basic_string@DU?$char_traits@D@std@@V?$allocator@D@2@@std@@PEAVnode@@0@Z@4HA
pdata	ENDS
;	COMDAT pdata
pdata	SEGMENT
$pdata$?print_node@tree_builder@@QEAAXPEAVnode@@@Z DD imagerel $LN13
	DD	imagerel $LN13+458
	DD	imagerel $unwind$?print_node@tree_builder@@QEAAXPEAVnode@@@Z
pdata	ENDS
;	COMDAT pdata
pdata	SEGMENT
$pdata$?dtor$1@?0??print_node@tree_builder@@QEAAXPEAVnode@@@Z@4HA DD imagerel ?dtor$1@?0??print_node@tree_builder@@QEAAXPEAVnode@@@Z@4HA
	DD	imagerel ?dtor$1@?0??print_node@tree_builder@@QEAAXPEAVnode@@@Z@4HA+39
	DD	imagerel $unwind$?dtor$1@?0??print_node@tree_builder@@QEAAXPEAVnode@@@Z@4HA
pdata	ENDS
;	COMDAT pdata
pdata	SEGMENT
$pdata$?dtor$2@?0??print_node@tree_builder@@QEAAXPEAVnode@@@Z@4HA DD imagerel ?dtor$2@?0??print_node@tree_builder@@QEAAXPEAVnode@@@Z@4HA
	DD	imagerel ?dtor$2@?0??print_node@tree_builder@@QEAAXPEAVnode@@@Z@4HA+39
	DD	imagerel $unwind$?dtor$2@?0??print_node@tree_builder@@QEAAXPEAVnode@@@Z@4HA
pdata	ENDS
;	COMDAT pdata
pdata	SEGMENT
$pdata$?print_tree@tree_builder@@QEAAXXZ DD imagerel $LN4
	DD	imagerel $LN4+214
	DD	imagerel $unwind$?print_tree@tree_builder@@QEAAXXZ
pdata	ENDS
;	COMDAT pdata
pdata	SEGMENT
$pdata$?dtor$0@?0??print_tree@tree_builder@@QEAAXXZ@4HA DD imagerel ?dtor$0@?0??print_tree@tree_builder@@QEAAXXZ@4HA
	DD	imagerel ?dtor$0@?0??print_tree@tree_builder@@QEAAXXZ@4HA+36
	DD	imagerel $unwind$?dtor$0@?0??print_tree@tree_builder@@QEAAXXZ@4HA
pdata	ENDS
;	COMDAT pdata
pdata	SEGMENT
$pdata$?to_string@tree_builder@@QEAA?AV?$basic_string@DU?$char_traits@D@std@@V?$allocator@D@2@@std@@XZ DD imagerel $LN7
	DD	imagerel $LN7+315
	DD	imagerel $unwind$?to_string@tree_builder@@QEAA?AV?$basic_string@DU?$char_traits@D@std@@V?$allocator@D@2@@std@@XZ
pdata	ENDS
;	COMDAT pdata
pdata	SEGMENT
$pdata$?dtor$0@?0??to_string@tree_builder@@QEAA?AV?$basic_string@DU?$char_traits@D@std@@V?$allocator@D@2@@std@@XZ@4HA DD imagerel ?dtor$0@?0??to_string@tree_builder@@QEAA?AV?$basic_string@DU?$char_traits@D@std@@V?$allocator@D@2@@std@@XZ@4HA
	DD	imagerel ?dtor$0@?0??to_string@tree_builder@@QEAA?AV?$basic_string@DU?$char_traits@D@std@@V?$allocator@D@2@@std@@XZ@4HA+36
	DD	imagerel $unwind$?dtor$0@?0??to_string@tree_builder@@QEAA?AV?$basic_string@DU?$char_traits@D@std@@V?$allocator@D@2@@std@@XZ@4HA
pdata	ENDS
;	COMDAT pdata
pdata	SEGMENT
$pdata$?dtor$1@?0??to_string@tree_builder@@QEAA?AV?$basic_string@DU?$char_traits@D@std@@V?$allocator@D@2@@std@@XZ@4HA DD imagerel ?dtor$1@?0??to_string@tree_builder@@QEAA?AV?$basic_string@DU?$char_traits@D@std@@V?$allocator@D@2@@std@@XZ@4HA
	DD	imagerel ?dtor$1@?0??to_string@tree_builder@@QEAA?AV?$basic_string@DU?$char_traits@D@std@@V?$allocator@D@2@@std@@XZ@4HA+39
	DD	imagerel $unwind$?dtor$1@?0??to_string@tree_builder@@QEAA?AV?$basic_string@DU?$char_traits@D@std@@V?$allocator@D@2@@std@@XZ@4HA
pdata	ENDS
;	COMDAT pdata
pdata	SEGMENT
$pdata$?random_to_string@tree_builder@@QEAA?AV?$basic_string@DU?$char_traits@D@std@@V?$allocator@D@2@@std@@XZ DD imagerel $LN6
	DD	imagerel $LN6+245
	DD	imagerel $unwind$?random_to_string@tree_builder@@QEAA?AV?$basic_string@DU?$char_traits@D@std@@V?$allocator@D@2@@std@@XZ
pdata	ENDS
;	COMDAT pdata
pdata	SEGMENT
$pdata$?dtor$0@?0??random_to_string@tree_builder@@QEAA?AV?$basic_string@DU?$char_traits@D@std@@V?$allocator@D@2@@std@@XZ@4HA DD imagerel ?dtor$0@?0??random_to_string@tree_builder@@QEAA?AV?$basic_string@DU?$char_traits@D@std@@V?$allocator@D@2@@std@@XZ@4HA
	DD	imagerel ?dtor$0@?0??random_to_string@tree_builder@@QEAA?AV?$basic_string@DU?$char_traits@D@std@@V?$allocator@D@2@@std@@XZ@4HA+36
	DD	imagerel $unwind$?dtor$0@?0??random_to_string@tree_builder@@QEAA?AV?$basic_string@DU?$char_traits@D@std@@V?$allocator@D@2@@std@@XZ@4HA
pdata	ENDS
;	COMDAT pdata
pdata	SEGMENT
$pdata$?get_string@tree_builder@@QEAAXPEAVnode@@AEAV?$basic_string@DU?$char_traits@D@std@@V?$allocator@D@2@@std@@@Z DD imagerel $LN15
	DD	imagerel $LN15+733
	DD	imagerel $unwind$?get_string@tree_builder@@QEAAXPEAVnode@@AEAV?$basic_string@DU?$char_traits@D@std@@V?$allocator@D@2@@std@@@Z
pdata	ENDS
;	COMDAT pdata
pdata	SEGMENT
$pdata$?dtor$1@?0??get_string@tree_builder@@QEAAXPEAVnode@@AEAV?$basic_string@DU?$char_traits@D@std@@V?$allocator@D@2@@std@@@Z@4HA DD imagerel ?dtor$1@?0??get_string@tree_builder@@QEAAXPEAVnode@@AEAV?$basic_string@DU?$char_traits@D@std@@V?$allocator@D@2@@std@@@Z@4HA
	DD	imagerel ?dtor$1@?0??get_string@tree_builder@@QEAAXPEAVnode@@AEAV?$basic_string@DU?$char_traits@D@std@@V?$allocator@D@2@@std@@@Z@4HA+36
	DD	imagerel $unwind$?dtor$1@?0??get_string@tree_builder@@QEAAXPEAVnode@@AEAV?$basic_string@DU?$char_traits@D@std@@V?$allocator@D@2@@std@@@Z@4HA
pdata	ENDS
;	COMDAT pdata
pdata	SEGMENT
$pdata$?dtor$2@?0??get_string@tree_builder@@QEAAXPEAVnode@@AEAV?$basic_string@DU?$char_traits@D@std@@V?$allocator@D@2@@std@@@Z@4HA DD imagerel ?dtor$2@?0??get_string@tree_builder@@QEAAXPEAVnode@@AEAV?$basic_string@DU?$char_traits@D@std@@V?$allocator@D@2@@std@@@Z@4HA
	DD	imagerel ?dtor$2@?0??get_string@tree_builder@@QEAAXPEAVnode@@AEAV?$basic_string@DU?$char_traits@D@std@@V?$allocator@D@2@@std@@@Z@4HA+36
	DD	imagerel $unwind$?dtor$2@?0??get_string@tree_builder@@QEAAXPEAVnode@@AEAV?$basic_string@DU?$char_traits@D@std@@V?$allocator@D@2@@std@@@Z@4HA
pdata	ENDS
;	COMDAT pdata
pdata	SEGMENT
$pdata$?dtor$3@?0??get_string@tree_builder@@QEAAXPEAVnode@@AEAV?$basic_string@DU?$char_traits@D@std@@V?$allocator@D@2@@std@@@Z@4HA DD imagerel ?dtor$3@?0??get_string@tree_builder@@QEAAXPEAVnode@@AEAV?$basic_string@DU?$char_traits@D@std@@V?$allocator@D@2@@std@@@Z@4HA
	DD	imagerel ?dtor$3@?0??get_string@tree_builder@@QEAAXPEAVnode@@AEAV?$basic_string@DU?$char_traits@D@std@@V?$allocator@D@2@@std@@@Z@4HA+39
	DD	imagerel $unwind$?dtor$3@?0??get_string@tree_builder@@QEAAXPEAVnode@@AEAV?$basic_string@DU?$char_traits@D@std@@V?$allocator@D@2@@std@@@Z@4HA
pdata	ENDS
;	COMDAT pdata
pdata	SEGMENT
$pdata$?dtor$4@?0??get_string@tree_builder@@QEAAXPEAVnode@@AEAV?$basic_string@DU?$char_traits@D@std@@V?$allocator@D@2@@std@@@Z@4HA DD imagerel ?dtor$4@?0??get_string@tree_builder@@QEAAXPEAVnode@@AEAV?$basic_string@DU?$char_traits@D@std@@V?$allocator@D@2@@std@@@Z@4HA
	DD	imagerel ?dtor$4@?0??get_string@tree_builder@@QEAAXPEAVnode@@AEAV?$basic_string@DU?$char_traits@D@std@@V?$allocator@D@2@@std@@@Z@4HA+39
	DD	imagerel $unwind$?dtor$4@?0??get_string@tree_builder@@QEAAXPEAVnode@@AEAV?$basic_string@DU?$char_traits@D@std@@V?$allocator@D@2@@std@@@Z@4HA
pdata	ENDS
;	COMDAT pdata
pdata	SEGMENT
$pdata$?dtor$5@?0??get_string@tree_builder@@QEAAXPEAVnode@@AEAV?$basic_string@DU?$char_traits@D@std@@V?$allocator@D@2@@std@@@Z@4HA DD imagerel ?dtor$5@?0??get_string@tree_builder@@QEAAXPEAVnode@@AEAV?$basic_string@DU?$char_traits@D@std@@V?$allocator@D@2@@std@@@Z@4HA
	DD	imagerel ?dtor$5@?0??get_string@tree_builder@@QEAAXPEAVnode@@AEAV?$basic_string@DU?$char_traits@D@std@@V?$allocator@D@2@@std@@@Z@4HA+39
	DD	imagerel $unwind$?dtor$5@?0??get_string@tree_builder@@QEAAXPEAVnode@@AEAV?$basic_string@DU?$char_traits@D@std@@V?$allocator@D@2@@std@@@Z@4HA
pdata	ENDS
;	COMDAT pdata
pdata	SEGMENT
$pdata$?dtor$6@?0??get_string@tree_builder@@QEAAXPEAVnode@@AEAV?$basic_string@DU?$char_traits@D@std@@V?$allocator@D@2@@std@@@Z@4HA DD imagerel ?dtor$6@?0??get_string@tree_builder@@QEAAXPEAVnode@@AEAV?$basic_string@DU?$char_traits@D@std@@V?$allocator@D@2@@std@@@Z@4HA
	DD	imagerel ?dtor$6@?0??get_string@tree_builder@@QEAAXPEAVnode@@AEAV?$basic_string@DU?$char_traits@D@std@@V?$allocator@D@2@@std@@@Z@4HA+39
	DD	imagerel $unwind$?dtor$6@?0??get_string@tree_builder@@QEAAXPEAVnode@@AEAV?$basic_string@DU?$char_traits@D@std@@V?$allocator@D@2@@std@@@Z@4HA
pdata	ENDS
;	COMDAT pdata
pdata	SEGMENT
$pdata$?dtor$7@?0??get_string@tree_builder@@QEAAXPEAVnode@@AEAV?$basic_string@DU?$char_traits@D@std@@V?$allocator@D@2@@std@@@Z@4HA DD imagerel ?dtor$7@?0??get_string@tree_builder@@QEAAXPEAVnode@@AEAV?$basic_string@DU?$char_traits@D@std@@V?$allocator@D@2@@std@@@Z@4HA
	DD	imagerel ?dtor$7@?0??get_string@tree_builder@@QEAAXPEAVnode@@AEAV?$basic_string@DU?$char_traits@D@std@@V?$allocator@D@2@@std@@@Z@4HA+39
	DD	imagerel $unwind$?dtor$7@?0??get_string@tree_builder@@QEAAXPEAVnode@@AEAV?$basic_string@DU?$char_traits@D@std@@V?$allocator@D@2@@std@@@Z@4HA
pdata	ENDS
;	COMDAT pdata
pdata	SEGMENT
$pdata$?dtor$8@?0??get_string@tree_builder@@QEAAXPEAVnode@@AEAV?$basic_string@DU?$char_traits@D@std@@V?$allocator@D@2@@std@@@Z@4HA DD imagerel ?dtor$8@?0??get_string@tree_builder@@QEAAXPEAVnode@@AEAV?$basic_string@DU?$char_traits@D@std@@V?$allocator@D@2@@std@@@Z@4HA
	DD	imagerel ?dtor$8@?0??get_string@tree_builder@@QEAAXPEAVnode@@AEAV?$basic_string@DU?$char_traits@D@std@@V?$allocator@D@2@@std@@@Z@4HA+39
	DD	imagerel $unwind$?dtor$8@?0??get_string@tree_builder@@QEAAXPEAVnode@@AEAV?$basic_string@DU?$char_traits@D@std@@V?$allocator@D@2@@std@@@Z@4HA
pdata	ENDS
;	COMDAT pdata
pdata	SEGMENT
$pdata$?findMaxIndex@tree_builder@@QEAAHV?$vector@Uop@@V?$allocator@Uop@@@std@@@std@@HHH@Z DD imagerel $LN14
	DD	imagerel $LN14+570
	DD	imagerel $unwind$?findMaxIndex@tree_builder@@QEAAHV?$vector@Uop@@V?$allocator@Uop@@@std@@@std@@HHH@Z
pdata	ENDS
;	COMDAT pdata
pdata	SEGMENT
$pdata$?dtor$0@?0??findMaxIndex@tree_builder@@QEAAHV?$vector@Uop@@V?$allocator@Uop@@@std@@@std@@HHH@Z@4HA DD imagerel ?dtor$0@?0??findMaxIndex@tree_builder@@QEAAHV?$vector@Uop@@V?$allocator@Uop@@@std@@@std@@HHH@Z@4HA
	DD	imagerel ?dtor$0@?0??findMaxIndex@tree_builder@@QEAAHV?$vector@Uop@@V?$allocator@Uop@@@std@@@std@@HHH@Z@4HA+39
	DD	imagerel $unwind$?dtor$0@?0??findMaxIndex@tree_builder@@QEAAHV?$vector@Uop@@V?$allocator@Uop@@@std@@@std@@HHH@Z@4HA
pdata	ENDS
;	COMDAT pdata
pdata	SEGMENT
$pdata$?dtor$1@?0??findMaxIndex@tree_builder@@QEAAHV?$vector@Uop@@V?$allocator@Uop@@@std@@@std@@HHH@Z@4HA DD imagerel ?dtor$1@?0??findMaxIndex@tree_builder@@QEAAHV?$vector@Uop@@V?$allocator@Uop@@@std@@@std@@HHH@Z@4HA
	DD	imagerel ?dtor$1@?0??findMaxIndex@tree_builder@@QEAAHV?$vector@Uop@@V?$allocator@Uop@@@std@@@std@@HHH@Z@4HA+39
	DD	imagerel $unwind$?dtor$1@?0??findMaxIndex@tree_builder@@QEAAHV?$vector@Uop@@V?$allocator@Uop@@@std@@@std@@HHH@Z@4HA
pdata	ENDS
;	COMDAT pdata
pdata	SEGMENT
$pdata$?addLeft@tree_builder@@QEAAXPEAVnode@@H@Z DD imagerel $LN29
	DD	imagerel $LN29+1329
	DD	imagerel $unwind$?addLeft@tree_builder@@QEAAXPEAVnode@@H@Z
pdata	ENDS
;	COMDAT pdata
pdata	SEGMENT
$pdata$?dtor$0@?0??addLeft@tree_builder@@QEAAXPEAVnode@@H@Z@4HA DD imagerel ?dtor$0@?0??addLeft@tree_builder@@QEAAXPEAVnode@@H@Z@4HA
	DD	imagerel ?dtor$0@?0??addLeft@tree_builder@@QEAAXPEAVnode@@H@Z@4HA+44
	DD	imagerel $unwind$?dtor$0@?0??addLeft@tree_builder@@QEAAXPEAVnode@@H@Z@4HA
pdata	ENDS
;	COMDAT pdata
pdata	SEGMENT
$pdata$?dtor$1@?0??addLeft@tree_builder@@QEAAXPEAVnode@@H@Z@4HA DD imagerel ?dtor$1@?0??addLeft@tree_builder@@QEAAXPEAVnode@@H@Z@4HA
	DD	imagerel ?dtor$1@?0??addLeft@tree_builder@@QEAAXPEAVnode@@H@Z@4HA+59
	DD	imagerel $unwind$?dtor$1@?0??addLeft@tree_builder@@QEAAXPEAVnode@@H@Z@4HA
pdata	ENDS
;	COMDAT pdata
pdata	SEGMENT
$pdata$?dtor$5@?0??addLeft@tree_builder@@QEAAXPEAVnode@@H@Z@4HA DD imagerel ?dtor$5@?0??addLeft@tree_builder@@QEAAXPEAVnode@@H@Z@4HA
	DD	imagerel ?dtor$5@?0??addLeft@tree_builder@@QEAAXPEAVnode@@H@Z@4HA+39
	DD	imagerel $unwind$?dtor$5@?0??addLeft@tree_builder@@QEAAXPEAVnode@@H@Z@4HA
pdata	ENDS
;	COMDAT pdata
pdata	SEGMENT
$pdata$?dtor$6@?0??addLeft@tree_builder@@QEAAXPEAVnode@@H@Z@4HA DD imagerel ?dtor$6@?0??addLeft@tree_builder@@QEAAXPEAVnode@@H@Z@4HA
	DD	imagerel ?dtor$6@?0??addLeft@tree_builder@@QEAAXPEAVnode@@H@Z@4HA+36
	DD	imagerel $unwind$?dtor$6@?0??addLeft@tree_builder@@QEAAXPEAVnode@@H@Z@4HA
pdata	ENDS
;	COMDAT pdata
pdata	SEGMENT
$pdata$?dtor$7@?0??addLeft@tree_builder@@QEAAXPEAVnode@@H@Z@4HA DD imagerel ?dtor$7@?0??addLeft@tree_builder@@QEAAXPEAVnode@@H@Z@4HA
	DD	imagerel ?dtor$7@?0??addLeft@tree_builder@@QEAAXPEAVnode@@H@Z@4HA+44
	DD	imagerel $unwind$?dtor$7@?0??addLeft@tree_builder@@QEAAXPEAVnode@@H@Z@4HA
pdata	ENDS
;	COMDAT pdata
pdata	SEGMENT
$pdata$?dtor$9@?0??addLeft@tree_builder@@QEAAXPEAVnode@@H@Z@4HA DD imagerel ?dtor$9@?0??addLeft@tree_builder@@QEAAXPEAVnode@@H@Z@4HA
	DD	imagerel ?dtor$9@?0??addLeft@tree_builder@@QEAAXPEAVnode@@H@Z@4HA+44
	DD	imagerel $unwind$?dtor$9@?0??addLeft@tree_builder@@QEAAXPEAVnode@@H@Z@4HA
pdata	ENDS
;	COMDAT pdata
pdata	SEGMENT
$pdata$?dtor$10@?0??addLeft@tree_builder@@QEAAXPEAVnode@@H@Z@4HA DD imagerel ?dtor$10@?0??addLeft@tree_builder@@QEAAXPEAVnode@@H@Z@4HA
	DD	imagerel ?dtor$10@?0??addLeft@tree_builder@@QEAAXPEAVnode@@H@Z@4HA+59
	DD	imagerel $unwind$?dtor$10@?0??addLeft@tree_builder@@QEAAXPEAVnode@@H@Z@4HA
pdata	ENDS
;	COMDAT pdata
pdata	SEGMENT
$pdata$?addRight@tree_builder@@QEAAXPEAVnode@@HH@Z DD imagerel $LN21
	DD	imagerel $LN21+1060
	DD	imagerel $unwind$?addRight@tree_builder@@QEAAXPEAVnode@@HH@Z
pdata	ENDS
;	COMDAT pdata
pdata	SEGMENT
$pdata$?dtor$0@?0??addRight@tree_builder@@QEAAXPEAVnode@@HH@Z@4HA DD imagerel ?dtor$0@?0??addRight@tree_builder@@QEAAXPEAVnode@@HH@Z@4HA
	DD	imagerel ?dtor$0@?0??addRight@tree_builder@@QEAAXPEAVnode@@HH@Z@4HA+36
	DD	imagerel $unwind$?dtor$0@?0??addRight@tree_builder@@QEAAXPEAVnode@@HH@Z@4HA
pdata	ENDS
;	COMDAT pdata
pdata	SEGMENT
$pdata$?dtor$3@?0??addRight@tree_builder@@QEAAXPEAVnode@@HH@Z@4HA DD imagerel ?dtor$3@?0??addRight@tree_builder@@QEAAXPEAVnode@@HH@Z@4HA
	DD	imagerel ?dtor$3@?0??addRight@tree_builder@@QEAAXPEAVnode@@HH@Z@4HA+39
	DD	imagerel $unwind$?dtor$3@?0??addRight@tree_builder@@QEAAXPEAVnode@@HH@Z@4HA
pdata	ENDS
;	COMDAT pdata
pdata	SEGMENT
$pdata$?dtor$4@?0??addRight@tree_builder@@QEAAXPEAVnode@@HH@Z@4HA DD imagerel ?dtor$4@?0??addRight@tree_builder@@QEAAXPEAVnode@@HH@Z@4HA
	DD	imagerel ?dtor$4@?0??addRight@tree_builder@@QEAAXPEAVnode@@HH@Z@4HA+39
	DD	imagerel $unwind$?dtor$4@?0??addRight@tree_builder@@QEAAXPEAVnode@@HH@Z@4HA
pdata	ENDS
;	COMDAT pdata
pdata	SEGMENT
$pdata$?dtor$5@?0??addRight@tree_builder@@QEAAXPEAVnode@@HH@Z@4HA DD imagerel ?dtor$5@?0??addRight@tree_builder@@QEAAXPEAVnode@@HH@Z@4HA
	DD	imagerel ?dtor$5@?0??addRight@tree_builder@@QEAAXPEAVnode@@HH@Z@4HA+44
	DD	imagerel $unwind$?dtor$5@?0??addRight@tree_builder@@QEAAXPEAVnode@@HH@Z@4HA
pdata	ENDS
;	COMDAT pdata
pdata	SEGMENT
$pdata$?dtor$7@?0??addRight@tree_builder@@QEAAXPEAVnode@@HH@Z@4HA DD imagerel ?dtor$7@?0??addRight@tree_builder@@QEAAXPEAVnode@@HH@Z@4HA
	DD	imagerel ?dtor$7@?0??addRight@tree_builder@@QEAAXPEAVnode@@HH@Z@4HA+44
	DD	imagerel $unwind$?dtor$7@?0??addRight@tree_builder@@QEAAXPEAVnode@@HH@Z@4HA
pdata	ENDS
;	COMDAT pdata
pdata	SEGMENT
$pdata$?dtor$8@?0??addRight@tree_builder@@QEAAXPEAVnode@@HH@Z@4HA DD imagerel ?dtor$8@?0??addRight@tree_builder@@QEAAXPEAVnode@@HH@Z@4HA
	DD	imagerel ?dtor$8@?0??addRight@tree_builder@@QEAAXPEAVnode@@HH@Z@4HA+59
	DD	imagerel $unwind$?dtor$8@?0??addRight@tree_builder@@QEAAXPEAVnode@@HH@Z@4HA
pdata	ENDS
;	COMDAT pdata
pdata	SEGMENT
$pdata$?build@tree_builder@@QEAAXXZ DD imagerel $LN11
	DD	imagerel $LN11+583
	DD	imagerel $unwind$?build@tree_builder@@QEAAXXZ
pdata	ENDS
;	COMDAT pdata
pdata	SEGMENT
$pdata$?dtor$0@?0??build@tree_builder@@QEAAXXZ@4HA DD imagerel ?dtor$0@?0??build@tree_builder@@QEAAXXZ@4HA
	DD	imagerel ?dtor$0@?0??build@tree_builder@@QEAAXXZ@4HA+36
	DD	imagerel $unwind$?dtor$0@?0??build@tree_builder@@QEAAXXZ@4HA
pdata	ENDS
;	COMDAT pdata
pdata	SEGMENT
$pdata$?dtor$1@?0??build@tree_builder@@QEAAXXZ@4HA DD imagerel ?dtor$1@?0??build@tree_builder@@QEAAXXZ@4HA
	DD	imagerel ?dtor$1@?0??build@tree_builder@@QEAAXXZ@4HA+36
	DD	imagerel $unwind$?dtor$1@?0??build@tree_builder@@QEAAXXZ@4HA
pdata	ENDS
;	COMDAT pdata
pdata	SEGMENT
$pdata$?dtor$3@?0??build@tree_builder@@QEAAXXZ@4HA DD imagerel ?dtor$3@?0??build@tree_builder@@QEAAXXZ@4HA
	DD	imagerel ?dtor$3@?0??build@tree_builder@@QEAAXXZ@4HA+39
	DD	imagerel $unwind$?dtor$3@?0??build@tree_builder@@QEAAXXZ@4HA
pdata	ENDS
;	COMDAT pdata
pdata	SEGMENT
$pdata$?dtor$4@?0??build@tree_builder@@QEAAXXZ@4HA DD imagerel ?dtor$4@?0??build@tree_builder@@QEAAXXZ@4HA
	DD	imagerel ?dtor$4@?0??build@tree_builder@@QEAAXXZ@4HA+44
	DD	imagerel $unwind$?dtor$4@?0??build@tree_builder@@QEAAXXZ@4HA
pdata	ENDS
;	COMDAT pdata
pdata	SEGMENT
$pdata$?performOperation@tree_builder@@QEAANUop@@NN@Z DD imagerel $LN15
	DD	imagerel $LN15+395
	DD	imagerel $unwind$?performOperation@tree_builder@@QEAANUop@@NN@Z
pdata	ENDS
;	COMDAT pdata
pdata	SEGMENT
$pdata$?dtor$0@?0??performOperation@tree_builder@@QEAANUop@@NN@Z@4HA DD imagerel ?dtor$0@?0??performOperation@tree_builder@@QEAANUop@@NN@Z@4HA
	DD	imagerel ?dtor$0@?0??performOperation@tree_builder@@QEAANUop@@NN@Z@4HA+39
	DD	imagerel $unwind$?dtor$0@?0??performOperation@tree_builder@@QEAANUop@@NN@Z@4HA
pdata	ENDS
;	COMDAT pdata
pdata	SEGMENT
$pdata$?calcNode@tree_builder@@QEAANPEAVnode@@@Z DD imagerel $LN13
	DD	imagerel $LN13+471
	DD	imagerel $unwind$?calcNode@tree_builder@@QEAANPEAVnode@@@Z
pdata	ENDS
;	COMDAT pdata
pdata	SEGMENT
$pdata$?calc@tree_builder@@QEAANNNN@Z DD imagerel $LN3
	DD	imagerel $LN3+171
	DD	imagerel $unwind$?calc@tree_builder@@QEAANNNN@Z
pdata	ENDS
;	COMDAT pdata
pdata	SEGMENT
$pdata$??1tree_builder@@QEAA@XZ DD imagerel $LN3
	DD	imagerel $LN3+48
	DD	imagerel $unwind$??1tree_builder@@QEAA@XZ
pdata	ENDS
;	COMDAT pdata
pdata	SEGMENT
$pdata$?__autoclassinit2@tree_builder@@QEAAX_K@Z DD imagerel $LN3
	DD	imagerel $LN3+50
	DD	imagerel $unwind$?__autoclassinit2@tree_builder@@QEAAX_K@Z
pdata	ENDS
;	COMDAT pdata
pdata	SEGMENT
$pdata$??$?6DU?$char_traits@D@std@@V?$allocator@D@1@@std@@YAAEAV?$basic_ostream@DU?$char_traits@D@std@@@0@AEAV10@AEBV?$basic_string@DU?$char_traits@D@std@@V?$allocator@D@2@@0@@Z DD imagerel $LN3
	DD	imagerel $LN3+102
	DD	imagerel $unwind$??$?6DU?$char_traits@D@std@@V?$allocator@D@1@@std@@YAAEAV?$basic_ostream@DU?$char_traits@D@std@@@0@AEAV10@AEBV?$basic_string@DU?$char_traits@D@std@@V?$allocator@D@2@@0@@Z
pdata	ENDS
;	COMDAT pdata
pdata	SEGMENT
$pdata$??$endl@DU?$char_traits@D@std@@@std@@YAAEAV?$basic_ostream@DU?$char_traits@D@std@@@0@AEAV10@@Z DD imagerel $LN3
	DD	imagerel $LN3+115
	DD	imagerel $unwind$??$endl@DU?$char_traits@D@std@@@std@@YAAEAV?$basic_ostream@DU?$char_traits@D@std@@@0@AEAV10@@Z
pdata	ENDS
;	COMDAT pdata
pdata	SEGMENT
$pdata$??$?HDU?$char_traits@D@std@@V?$allocator@D@1@@std@@YA?AV?$basic_string@DU?$char_traits@D@std@@V?$allocator@D@2@@0@QEBDAEBV10@@Z DD imagerel $LN6
	DD	imagerel $LN6+245
	DD	imagerel $unwind$??$?HDU?$char_traits@D@std@@V?$allocator@D@1@@std@@YA?AV?$basic_string@DU?$char_traits@D@std@@V?$allocator@D@2@@0@QEBDAEBV10@@Z
pdata	ENDS
;	COMDAT pdata
pdata	SEGMENT
$pdata$??$?HDU?$char_traits@D@std@@V?$allocator@D@1@@std@@YA?AV?$basic_string@DU?$char_traits@D@std@@V?$allocator@D@2@@0@$$QEAV10@QEBD@Z DD imagerel $LN5
	DD	imagerel $LN5+125
	DD	imagerel $unwind$??$?HDU?$char_traits@D@std@@V?$allocator@D@1@@std@@YA?AV?$basic_string@DU?$char_traits@D@std@@V?$allocator@D@2@@0@$$QEAV10@QEBD@Z
pdata	ENDS
;	COMDAT pdata
pdata	SEGMENT
$pdata$??$?HDU?$char_traits@D@std@@V?$allocator@D@1@@std@@YA?AV?$basic_string@DU?$char_traits@D@std@@V?$allocator@D@2@@0@$$QEAV10@AEBV10@@Z DD imagerel $LN5
	DD	imagerel $LN5+125
	DD	imagerel $unwind$??$?HDU?$char_traits@D@std@@V?$allocator@D@1@@std@@YA?AV?$basic_string@DU?$char_traits@D@std@@V?$allocator@D@2@@0@$$QEAV10@AEBV10@@Z
pdata	ENDS
;	COMDAT pdata
pdata	SEGMENT
$pdata$??$?HDU?$char_traits@D@std@@V?$allocator@D@1@@std@@YA?AV?$basic_string@DU?$char_traits@D@std@@V?$allocator@D@2@@0@$$QEAV10@0@Z DD imagerel $LN14
	DD	imagerel $LN14+278
	DD	imagerel $unwind$??$?HDU?$char_traits@D@std@@V?$allocator@D@1@@std@@YA?AV?$basic_string@DU?$char_traits@D@std@@V?$allocator@D@2@@0@$$QEAV10@0@Z
pdata	ENDS
;	COMDAT pdata
pdata	SEGMENT
$pdata$?isTokenizable@@YA_ND@Z DD imagerel $LN5
	DD	imagerel $LN5+100
	DD	imagerel $unwind$?isTokenizable@@YA_ND@Z
pdata	ENDS
;	COMDAT pdata
pdata	SEGMENT
$pdata$?IsSupportedVariableName@@YA_ND@Z DD imagerel $LN7
	DD	imagerel $LN7+127
	DD	imagerel $unwind$?IsSupportedVariableName@@YA_ND@Z
pdata	ENDS
;	COMDAT pdata
pdata	SEGMENT
$pdata$?setPrev@@YA_NDPEAD@Z DD imagerel $LN5
	DD	imagerel $LN5+81
	DD	imagerel $unwind$?setPrev@@YA_NDPEAD@Z
pdata	ENDS
;	COMDAT pdata
pdata	SEGMENT
$pdata$?IsOperator@@YA_ND@Z DD imagerel $LN7
	DD	imagerel $LN7+127
	DD	imagerel $unwind$?IsOperator@@YA_ND@Z
pdata	ENDS
;	COMDAT pdata
pdata	SEGMENT
$pdata$main DD	imagerel $LN52
	DD	imagerel $LN52+2323
	DD	imagerel $unwind$main
pdata	ENDS
;	COMDAT pdata
pdata	SEGMENT
$pdata$main$dtor$0 DD imagerel main$dtor$0
	DD	imagerel main$dtor$0+39
	DD	imagerel $unwind$main$dtor$0
pdata	ENDS
;	COMDAT pdata
pdata	SEGMENT
$pdata$main$dtor$1 DD imagerel main$dtor$1
	DD	imagerel main$dtor$1+39
	DD	imagerel $unwind$main$dtor$1
pdata	ENDS
;	COMDAT pdata
pdata	SEGMENT
$pdata$main$dtor$2 DD imagerel main$dtor$2
	DD	imagerel main$dtor$2+39
	DD	imagerel $unwind$main$dtor$2
pdata	ENDS
;	COMDAT pdata
pdata	SEGMENT
$pdata$main$dtor$10 DD imagerel main$dtor$10
	DD	imagerel main$dtor$10+39
	DD	imagerel $unwind$main$dtor$10
pdata	ENDS
;	COMDAT pdata
pdata	SEGMENT
$pdata$main$dtor$11 DD imagerel main$dtor$11
	DD	imagerel main$dtor$11+39
	DD	imagerel $unwind$main$dtor$11
pdata	ENDS
;	COMDAT pdata
pdata	SEGMENT
$pdata$main$dtor$12 DD imagerel main$dtor$12
	DD	imagerel main$dtor$12+39
	DD	imagerel $unwind$main$dtor$12
pdata	ENDS
;	COMDAT pdata
pdata	SEGMENT
$pdata$main$dtor$13 DD imagerel main$dtor$13
	DD	imagerel main$dtor$13+39
	DD	imagerel $unwind$main$dtor$13
pdata	ENDS
;	COMDAT pdata
pdata	SEGMENT
$pdata$main$dtor$15 DD imagerel main$dtor$15
	DD	imagerel main$dtor$15+39
	DD	imagerel $unwind$main$dtor$15
pdata	ENDS
;	COMDAT pdata
pdata	SEGMENT
$pdata$??$?6U?$char_traits@D@std@@@std@@YAAEAV?$basic_ostream@DU?$char_traits@D@std@@@0@AEAV10@PEBD@Z DD imagerel $LN25
	DD	imagerel $LN25+1036
	DD	imagerel $unwind$??$?6U?$char_traits@D@std@@@std@@YAAEAV?$basic_ostream@DU?$char_traits@D@std@@@0@AEAV10@PEBD@Z
pdata	ENDS
;	COMDAT pdata
pdata	SEGMENT
$pdata$?dtor$0@?0???$?6U?$char_traits@D@std@@@std@@YAAEAV?$basic_ostream@DU?$char_traits@D@std@@@0@AEAV10@PEBD@Z@4HA DD imagerel ?dtor$0@?0???$?6U?$char_traits@D@std@@@std@@YAAEAV?$basic_ostream@DU?$char_traits@D@std@@@0@AEAV10@PEBD@Z@4HA
	DD	imagerel ?dtor$0@?0???$?6U?$char_traits@D@std@@@std@@YAAEAV?$basic_ostream@DU?$char_traits@D@std@@@0@AEAV10@PEBD@Z@4HA+36
	DD	imagerel $unwind$?dtor$0@?0???$?6U?$char_traits@D@std@@@std@@YAAEAV?$basic_ostream@DU?$char_traits@D@std@@@0@AEAV10@PEBD@Z@4HA
pdata	ENDS
;	COMDAT pdata
pdata	SEGMENT
$pdata$?catch$1@?0???$?6U?$char_traits@D@std@@@std@@YAAEAV?$basic_ostream@DU?$char_traits@D@std@@@0@AEAV10@PEBD@Z@4HA DD imagerel ?catch$1@?0???$?6U?$char_traits@D@std@@@std@@YAAEAV?$basic_ostream@DU?$char_traits@D@std@@@0@AEAV10@PEBD@Z@4HA
	DD	imagerel ?catch$1@?0???$?6U?$char_traits@D@std@@@std@@YAAEAV?$basic_ostream@DU?$char_traits@D@std@@@0@AEAV10@PEBD@Z@4HA+80
	DD	imagerel $unwind$?catch$1@?0???$?6U?$char_traits@D@std@@@std@@YAAEAV?$basic_ostream@DU?$char_traits@D@std@@@0@AEAV10@PEBD@Z@4HA
pdata	ENDS
;	COMDAT pdata
pdata	SEGMENT
$pdata$??$?6U?$char_traits@D@std@@@std@@YAAEAV?$basic_ostream@DU?$char_traits@D@std@@@0@AEAV10@D@Z DD imagerel $LN23
	DD	imagerel $LN23+1003
	DD	imagerel $unwind$??$?6U?$char_traits@D@std@@@std@@YAAEAV?$basic_ostream@DU?$char_traits@D@std@@@0@AEAV10@D@Z
pdata	ENDS
;	COMDAT pdata
pdata	SEGMENT
$pdata$?dtor$0@?0???$?6U?$char_traits@D@std@@@std@@YAAEAV?$basic_ostream@DU?$char_traits@D@std@@@0@AEAV10@D@Z@4HA DD imagerel ?dtor$0@?0???$?6U?$char_traits@D@std@@@std@@YAAEAV?$basic_ostream@DU?$char_traits@D@std@@@0@AEAV10@D@Z@4HA
	DD	imagerel ?dtor$0@?0???$?6U?$char_traits@D@std@@@std@@YAAEAV?$basic_ostream@DU?$char_traits@D@std@@@0@AEAV10@D@Z@4HA+36
	DD	imagerel $unwind$?dtor$0@?0???$?6U?$char_traits@D@std@@@std@@YAAEAV?$basic_ostream@DU?$char_traits@D@std@@@0@AEAV10@D@Z@4HA
pdata	ENDS
;	COMDAT pdata
pdata	SEGMENT
$pdata$?catch$1@?0???$?6U?$char_traits@D@std@@@std@@YAAEAV?$basic_ostream@DU?$char_traits@D@std@@@0@AEAV10@D@Z@4HA DD imagerel ?catch$1@?0???$?6U?$char_traits@D@std@@@std@@YAAEAV?$basic_ostream@DU?$char_traits@D@std@@@0@AEAV10@D@Z@4HA
	DD	imagerel ?catch$1@?0???$?6U?$char_traits@D@std@@@std@@YAAEAV?$basic_ostream@DU?$char_traits@D@std@@@0@AEAV10@D@Z@4HA+80
	DD	imagerel $unwind$?catch$1@?0???$?6U?$char_traits@D@std@@@std@@YAAEAV?$basic_ostream@DU?$char_traits@D@std@@@0@AEAV10@D@Z@4HA
pdata	ENDS
;	COMDAT pdata
pdata	SEGMENT
$pdata$??$emplace_back@AEBQEAVnode@@@?$vector@PEAVnode@@V?$allocator@PEAVnode@@@std@@@std@@QEAA?A_TAEBQEAVnode@@@Z DD imagerel $LN4
	DD	imagerel $LN4+153
	DD	imagerel $unwind$??$emplace_back@AEBQEAVnode@@@?$vector@PEAVnode@@V?$allocator@PEAVnode@@@std@@@std@@QEAA?A_TAEBQEAVnode@@@Z
pdata	ENDS
;	COMDAT pdata
pdata	SEGMENT
$pdata$??$forward@AEBQEAVnode@@@std@@YAAEBQEAVnode@@AEBQEAV1@@Z DD imagerel $LN3
	DD	imagerel $LN3+48
	DD	imagerel $unwind$??$forward@AEBQEAVnode@@@std@@YAAEBQEAVnode@@AEBQEAV1@@Z
pdata	ENDS
;	COMDAT pdata
pdata	SEGMENT
$pdata$??$_Emplace_back_with_unused_capacity@AEBQEAVnode@@@?$vector@PEAVnode@@V?$allocator@PEAVnode@@@std@@@std@@AEAA?A_TAEBQEAVnode@@@Z DD imagerel $LN3
	DD	imagerel $LN3+202
	DD	imagerel $unwind$??$_Emplace_back_with_unused_capacity@AEBQEAVnode@@@?$vector@PEAVnode@@V?$allocator@PEAVnode@@@std@@@std@@AEAA?A_TAEBQEAVnode@@@Z
pdata	ENDS
;	COMDAT pdata
pdata	SEGMENT
$pdata$??$_Unfancy@PEAVnode@@@std@@YAPEAPEAVnode@@PEAPEAV1@@Z DD imagerel $LN3
	DD	imagerel $LN3+48
	DD	imagerel $unwind$??$_Unfancy@PEAVnode@@@std@@YAPEAPEAVnode@@PEAPEAV1@@Z
pdata	ENDS
;	COMDAT pdata
pdata	SEGMENT
$pdata$??$construct@PEAVnode@@AEBQEAV1@@?$_Default_allocator_traits@V?$allocator@PEAVnode@@@std@@@std@@SAXAEAV?$allocator@PEAVnode@@@1@QEAPEAVnode@@AEBQEAV3@@Z DD imagerel $LN3
	DD	imagerel $LN3+108
	DD	imagerel $unwind$??$construct@PEAVnode@@AEBQEAV1@@?$_Default_allocator_traits@V?$allocator@PEAVnode@@@std@@@std@@SAXAEAV?$allocator@PEAVnode@@@1@QEAPEAVnode@@AEBQEAV3@@Z
pdata	ENDS
;	COMDAT pdata
pdata	SEGMENT
$pdata$??$_Emplace_reallocate@AEBQEAVnode@@@?$vector@PEAVnode@@V?$allocator@PEAVnode@@@std@@@std@@QEAAPEAPEAVnode@@QEAPEAV2@AEBQEAV2@@Z DD imagerel $LN13
	DD	imagerel $LN13+582
	DD	imagerel $unwind$??$_Emplace_reallocate@AEBQEAVnode@@@?$vector@PEAVnode@@V?$allocator@PEAVnode@@@std@@@std@@QEAAPEAPEAVnode@@QEAPEAV2@AEBQEAV2@@Z
pdata	ENDS
;	COMDAT pdata
pdata	SEGMENT
$pdata$?catch$0@?0???$_Emplace_reallocate@AEBQEAVnode@@@?$vector@PEAVnode@@V?$allocator@PEAVnode@@@std@@@std@@QEAAPEAPEAVnode@@QEAPEAV2@AEBQEAV2@@Z@4HA DD imagerel ?catch$0@?0???$_Emplace_reallocate@AEBQEAVnode@@@?$vector@PEAVnode@@V?$allocator@PEAVnode@@@std@@@std@@QEAAPEAPEAVnode@@QEAPEAV2@AEBQEAV2@@Z@4HA
	DD	imagerel ?catch$0@?0???$_Emplace_reallocate@AEBQEAVnode@@@?$vector@PEAVnode@@V?$allocator@PEAVnode@@@std@@@std@@QEAAPEAPEAVnode@@QEAPEAV2@AEBQEAV2@@Z@4HA+94
	DD	imagerel $unwind$?catch$0@?0???$_Emplace_reallocate@AEBQEAVnode@@@?$vector@PEAVnode@@V?$allocator@PEAVnode@@@std@@@std@@QEAAPEAPEAVnode@@QEAPEAV2@AEBQEAV2@@Z@4HA
pdata	ENDS
;	COMDAT pdata
pdata	SEGMENT
$pdata$?allocate@?$allocator@U_Container_proxy@std@@@std@@QEAAPEAU_Container_proxy@2@_K@Z DD imagerel $LN3
	DD	imagerel $LN3+66
	DD	imagerel $unwind$?allocate@?$allocator@U_Container_proxy@std@@@std@@QEAAPEAU_Container_proxy@2@_K@Z
pdata	ENDS
;	COMDAT pdata
pdata	SEGMENT
$pdata$??$?0PEAVnode@@@?$allocator@U_Container_proxy@std@@@std@@QEAA@AEBV?$allocator@PEAVnode@@@1@@Z DD imagerel $LN3
	DD	imagerel $LN3+53
	DD	imagerel $unwind$??$?0PEAVnode@@@?$allocator@U_Container_proxy@std@@@std@@QEAA@AEBV?$allocator@PEAVnode@@@1@@Z
pdata	ENDS
;	COMDAT pdata
pdata	SEGMENT
$pdata$??$exchange@PEAU_Container_proxy@std@@$$T@std@@YAPEAU_Container_proxy@0@AEAPEAU10@$$QEA$$T@Z DD imagerel $LN3
	DD	imagerel $LN3+84
	DD	imagerel $unwind$??$exchange@PEAU_Container_proxy@std@@$$T@std@@YAPEAU_Container_proxy@0@AEAPEAU10@$$QEA$$T@Z
pdata	ENDS
;	COMDAT pdata
pdata	SEGMENT
$pdata$??$_Delete_plain_internal@V?$allocator@U_Container_proxy@std@@@std@@@std@@YAXAEAV?$allocator@U_Container_proxy@std@@@0@QEAU_Container_proxy@0@@Z DD imagerel $LN3
	DD	imagerel $LN3+65
	DD	imagerel $unwind$??$_Delete_plain_internal@V?$allocator@U_Container_proxy@std@@@std@@@std@@YAXAEAV?$allocator@U_Container_proxy@std@@@0@QEAU_Container_proxy@0@@Z
pdata	ENDS
;	COMDAT pdata
pdata	SEGMENT
$pdata$??$?0$$V@?$_Compressed_pair@V?$allocator@PEAVnode@@@std@@V?$_Vector_val@U?$_Simple_types@PEAVnode@@@std@@@2@$00@std@@QEAA@U_Zero_then_variadic_args_t@1@@Z DD imagerel $LN3
	DD	imagerel $LN3+79
	DD	imagerel $unwind$??$?0$$V@?$_Compressed_pair@V?$allocator@PEAVnode@@@std@@V?$_Vector_val@U?$_Simple_types@PEAVnode@@@std@@@2@$00@std@@QEAA@U_Zero_then_variadic_args_t@1@@Z
pdata	ENDS
;	COMDAT pdata
pdata	SEGMENT
$pdata$??$_Alloc_proxy@V?$allocator@U_Container_proxy@std@@@std@@@_Container_base12@std@@QEAAX$$QEAV?$allocator@U_Container_proxy@std@@@1@@Z DD imagerel $LN3
	DD	imagerel $LN3+133
	DD	imagerel $unwind$??$_Alloc_proxy@V?$allocator@U_Container_proxy@std@@@std@@@_Container_base12@std@@QEAAX$$QEAV?$allocator@U_Container_proxy@std@@@1@@Z
pdata	ENDS
;	COMDAT pdata
pdata	SEGMENT
$pdata$??$?0Ubraket_group@@@?$allocator@U_Container_proxy@std@@@std@@QEAA@AEBV?$allocator@Ubraket_group@@@1@@Z DD imagerel $LN3
	DD	imagerel $LN3+53
	DD	imagerel $unwind$??$?0Ubraket_group@@@?$allocator@U_Container_proxy@std@@@std@@QEAA@AEBV?$allocator@Ubraket_group@@@1@@Z
pdata	ENDS
;	COMDAT pdata
pdata	SEGMENT
$pdata$??$?0Uop@@@?$allocator@U_Container_proxy@std@@@std@@QEAA@AEBV?$allocator@Uop@@@1@@Z DD imagerel $LN3
	DD	imagerel $LN3+53
	DD	imagerel $unwind$??$?0Uop@@@?$allocator@U_Container_proxy@std@@@std@@QEAA@AEBV?$allocator@Uop@@@1@@Z
pdata	ENDS
;	COMDAT pdata
pdata	SEGMENT
$pdata$??$?0V?$allocator@Uop@@@std@@$$V@?$_Compressed_pair@V?$allocator@Uop@@@std@@V?$_Vector_val@U?$_Simple_types@Uop@@@std@@@2@$00@std@@QEAA@U_One_then_variadic_args_t@1@$$QEAV?$allocator@Uop@@@1@@Z DD imagerel $LN3
	DD	imagerel $LN3+84
	DD	imagerel $unwind$??$?0V?$allocator@Uop@@@std@@$$V@?$_Compressed_pair@V?$allocator@Uop@@@std@@V?$_Vector_val@U?$_Simple_types@Uop@@@std@@@2@$00@std@@QEAA@U_One_then_variadic_args_t@1@$$QEAV?$allocator@Uop@@@1@@Z
pdata	ENDS
;	COMDAT pdata
pdata	SEGMENT
$pdata$??0?$_Container_proxy_ptr12@V?$allocator@U_Container_proxy@std@@@std@@@std@@QEAA@AEAV?$allocator@U_Container_proxy@std@@@1@AEAU_Container_base12@1@@Z DD imagerel $LN3
	DD	imagerel $LN3+184
	DD	imagerel $unwind$??0?$_Container_proxy_ptr12@V?$allocator@U_Container_proxy@std@@@std@@@std@@QEAA@AEAV?$allocator@U_Container_proxy@std@@@1@AEAU_Container_base12@1@@Z
pdata	ENDS
;	COMDAT pdata
pdata	SEGMENT
$pdata$??1?$_Container_proxy_ptr12@V?$allocator@U_Container_proxy@std@@@std@@@std@@QEAA@XZ DD imagerel $LN4
	DD	imagerel $LN4+80
	DD	imagerel $unwind$??1?$_Container_proxy_ptr12@V?$allocator@U_Container_proxy@std@@@std@@@std@@QEAA@XZ
pdata	ENDS
;	COMDAT pdata
pdata	SEGMENT
$pdata$??1?$_Tidy_guard@V?$vector@Uop@@V?$allocator@Uop@@@std@@@std@@@std@@QEAA@XZ DD imagerel $LN4
	DD	imagerel $LN4+69
	DD	imagerel $unwind$??1?$_Tidy_guard@V?$vector@Uop@@V?$allocator@Uop@@@std@@@std@@@std@@QEAA@XZ
pdata	ENDS
;	COMDAT pdata
pdata	SEGMENT
$pdata$??$_Ucopy@PEAUop@@@?$vector@Uop@@V?$allocator@Uop@@@std@@@std@@AEAAPEAUop@@PEAU2@00@Z DD imagerel $LN3
	DD	imagerel $LN3+97
	DD	imagerel $unwind$??$_Ucopy@PEAUop@@@?$vector@Uop@@V?$allocator@Uop@@@std@@@std@@AEAAPEAUop@@PEAU2@00@Z
pdata	ENDS
;	COMDAT pdata
pdata	SEGMENT
$pdata$??$?0V?$basic_string@DU?$char_traits@D@std@@V?$allocator@D@2@@std@@@?$allocator@U_Container_proxy@std@@@std@@QEAA@AEBV?$allocator@V?$basic_string@DU?$char_traits@D@std@@V?$allocator@D@2@@std@@@1@@Z DD imagerel $LN3
	DD	imagerel $LN3+53
	DD	imagerel $unwind$??$?0V?$basic_string@DU?$char_traits@D@std@@V?$allocator@D@2@@std@@@?$allocator@U_Container_proxy@std@@@std@@QEAA@AEBV?$allocator@V?$basic_string@DU?$char_traits@D@std@@V?$allocator@D@2@@std@@@1@@Z
pdata	ENDS
;	COMDAT pdata
pdata	SEGMENT
$pdata$??0_Sentry_base@?$basic_ostream@DU?$char_traits@D@std@@@std@@QEAA@AEAV12@@Z DD imagerel $LN4
	DD	imagerel $LN4+148
	DD	imagerel $unwind$??0_Sentry_base@?$basic_ostream@DU?$char_traits@D@std@@@std@@QEAA@AEAV12@@Z
pdata	ENDS
;	COMDAT pdata
pdata	SEGMENT
$pdata$??1_Sentry_base@?$basic_ostream@DU?$char_traits@D@std@@@std@@QEAA@XZ DD imagerel $LN4
	DD	imagerel $LN4+120
	DD	imagerel $unwind$??1_Sentry_base@?$basic_ostream@DU?$char_traits@D@std@@@std@@QEAA@XZ
pdata	ENDS
;	COMDAT pdata
pdata	SEGMENT
$pdata$??0sentry@?$basic_ostream@DU?$char_traits@D@std@@@std@@QEAA@AEAV12@@Z DD imagerel $LN7
	DD	imagerel $LN7+261
	DD	imagerel $unwind$??0sentry@?$basic_ostream@DU?$char_traits@D@std@@@std@@QEAA@AEAV12@@Z
pdata	ENDS
;	COMDAT pdata
pdata	SEGMENT
$pdata$?dtor$0@?0???0sentry@?$basic_ostream@DU?$char_traits@D@std@@@std@@QEAA@AEAV12@@Z@4HA DD imagerel ?dtor$0@?0???0sentry@?$basic_ostream@DU?$char_traits@D@std@@@std@@QEAA@AEAV12@@Z@4HA
	DD	imagerel ?dtor$0@?0???0sentry@?$basic_ostream@DU?$char_traits@D@std@@@std@@QEAA@AEAV12@@Z@4HA+39
	DD	imagerel $unwind$?dtor$0@?0???0sentry@?$basic_ostream@DU?$char_traits@D@std@@@std@@QEAA@AEAV12@@Z@4HA
pdata	ENDS
;	COMDAT pdata
pdata	SEGMENT
$pdata$??1sentry@?$basic_ostream@DU?$char_traits@D@std@@@std@@QEAA@XZ DD imagerel $LN6
	DD	imagerel $LN6+116
	DD	imagerel $unwind$??1sentry@?$basic_ostream@DU?$char_traits@D@std@@@std@@QEAA@XZ
pdata	ENDS
;	COMDAT pdata
pdata	SEGMENT
$pdata$??Bsentry@?$basic_ostream@DU?$char_traits@D@std@@@std@@QEBA_NXZ DD imagerel $LN3
	DD	imagerel $LN3+52
	DD	imagerel $unwind$??Bsentry@?$basic_ostream@DU?$char_traits@D@std@@@std@@QEBA_NXZ
pdata	ENDS
;	COMDAT pdata
pdata	SEGMENT
$pdata$??$move@AEAV?$basic_string@DU?$char_traits@D@std@@V?$allocator@D@2@@std@@@std@@YA$$QEAV?$basic_string@DU?$char_traits@D@std@@V?$allocator@D@2@@0@AEAV10@@Z DD imagerel $LN3
	DD	imagerel $LN3+48
	DD	imagerel $unwind$??$move@AEAV?$basic_string@DU?$char_traits@D@std@@V?$allocator@D@2@@std@@@std@@YA$$QEAV?$basic_string@DU?$char_traits@D@std@@V?$allocator@D@2@@0@AEAV10@@Z
pdata	ENDS
;	COMDAT pdata
pdata	SEGMENT
$pdata$??$min@_K@std@@YAAEB_KAEB_K0@Z DD imagerel $LN5
	DD	imagerel $LN5+119
	DD	imagerel $unwind$??$min@_K@std@@YAAEB_KAEB_K0@Z
pdata	ENDS
;	COMDAT pdata
pdata	SEGMENT
$pdata$??$_Traits_compare@U?$char_traits@D@std@@@std@@YAHQEBD_K01@Z DD imagerel $LN6
	DD	imagerel $LN6+159
	DD	imagerel $unwind$??$_Traits_compare@U?$char_traits@D@std@@@std@@YAHQEBD_K01@Z
pdata	ENDS
;	COMDAT pdata
pdata	SEGMENT
$pdata$??$addressof@$$CBV?$basic_string@DU?$char_traits@D@std@@V?$allocator@D@2@@std@@@std@@YAPEBV?$basic_string@DU?$char_traits@D@std@@V?$allocator@D@2@@0@AEBV10@@Z DD imagerel $LN3
	DD	imagerel $LN3+48
	DD	imagerel $unwind$??$addressof@$$CBV?$basic_string@DU?$char_traits@D@std@@V?$allocator@D@2@@std@@@std@@YAPEBV?$basic_string@DU?$char_traits@D@std@@V?$allocator@D@2@@0@AEBV10@@Z
pdata	ENDS
;	COMDAT pdata
pdata	SEGMENT
$pdata$??$?0D@?$allocator@U_Container_proxy@std@@@std@@QEAA@AEBV?$allocator@D@1@@Z DD imagerel $LN3
	DD	imagerel $LN3+53
	DD	imagerel $unwind$??$?0D@?$allocator@U_Container_proxy@std@@@std@@QEAA@AEBV?$allocator@D@1@@Z
pdata	ENDS
;	COMDAT pdata
pdata	SEGMENT
$pdata$??$addressof@V?$basic_string@DU?$char_traits@D@std@@V?$allocator@D@2@@std@@@std@@YAPEAV?$basic_string@DU?$char_traits@D@std@@V?$allocator@D@2@@0@AEAV10@@Z DD imagerel $LN3
	DD	imagerel $LN3+48
	DD	imagerel $unwind$??$addressof@V?$basic_string@DU?$char_traits@D@std@@V?$allocator@D@2@@std@@@std@@YAPEAV?$basic_string@DU?$char_traits@D@std@@V?$allocator@D@2@@0@AEAV10@@Z
pdata	ENDS
;	COMDAT pdata
pdata	SEGMENT
$pdata$??$move@AEAV?$allocator@D@std@@@std@@YA$$QEAV?$allocator@D@0@AEAV10@@Z DD imagerel $LN3
	DD	imagerel $LN3+48
	DD	imagerel $unwind$??$move@AEAV?$allocator@D@std@@@std@@YA$$QEAV?$allocator@D@0@AEAV10@@Z
pdata	ENDS
;	COMDAT pdata
pdata	SEGMENT
$pdata$??$?0V?$allocator@D@std@@$$V@?$_Compressed_pair@V?$allocator@D@std@@V?$_String_val@U?$_Simple_types@D@std@@@2@$00@std@@QEAA@U_One_then_variadic_args_t@1@$$QEAV?$allocator@D@1@@Z DD imagerel $LN3
	DD	imagerel $LN3+84
	DD	imagerel $unwind$??$?0V?$allocator@D@std@@$$V@?$_Compressed_pair@V?$allocator@D@std@@V?$_String_val@U?$_Simple_types@D@std@@@2@$00@std@@QEAA@U_One_then_variadic_args_t@1@$$QEAV?$allocator@D@1@@Z
pdata	ENDS
;	COMDAT pdata
pdata	SEGMENT
$pdata$??$?0$$V@?$_Compressed_pair@V?$allocator@D@std@@V?$_String_val@U?$_Simple_types@D@std@@@2@$00@std@@QEAA@U_Zero_then_variadic_args_t@1@@Z DD imagerel $LN3
	DD	imagerel $LN3+79
	DD	imagerel $unwind$??$?0$$V@?$_Compressed_pair@V?$allocator@D@std@@V?$_String_val@U?$_Simple_types@D@std@@@2@$00@std@@QEAA@U_Zero_then_variadic_args_t@1@@Z
pdata	ENDS
;	COMDAT pdata
pdata	SEGMENT
$pdata$??$_Unfancy@U_Container_proxy@std@@@std@@YAPEAU_Container_proxy@0@PEAU10@@Z DD imagerel $LN3
	DD	imagerel $LN3+48
	DD	imagerel $unwind$??$_Unfancy@U_Container_proxy@std@@@std@@YAPEAU_Container_proxy@0@PEAU10@@Z
pdata	ENDS
;	COMDAT pdata
pdata	SEGMENT
$pdata$??$_Destroy_range@V?$allocator@PEAVnode@@@std@@@std@@YAXPEAPEAVnode@@QEAPEAV1@AEAV?$allocator@PEAVnode@@@0@@Z DD imagerel $LN3
	DD	imagerel $LN3+51
	DD	imagerel $unwind$??$_Destroy_range@V?$allocator@PEAVnode@@@std@@@std@@YAXPEAPEAVnode@@QEAPEAV1@AEAV?$allocator@PEAVnode@@@0@@Z
pdata	ENDS
;	COMDAT pdata
pdata	SEGMENT
$pdata$??$_Destroy_in_place@PEAD@std@@YAXAEAPEAD@Z DD imagerel $LN3
	DD	imagerel $LN3+41
	DD	imagerel $unwind$??$_Destroy_in_place@PEAD@std@@YAXAEAPEAD@Z
pdata	ENDS
;	COMDAT pdata
pdata	SEGMENT
$pdata$??R<lambda_138c3d7c38c85abb84c7fc7bfe5747b7>@@QEBA@QEAD_KD@Z DD imagerel $LN3
	DD	imagerel $LN3+125
	DD	imagerel $unwind$??R<lambda_138c3d7c38c85abb84c7fc7bfe5747b7>@@QEBA@QEAD_KD@Z
pdata	ENDS
;	COMDAT pdata
pdata	SEGMENT
$pdata$??$_Reallocate_for@V<lambda_138c3d7c38c85abb84c7fc7bfe5747b7>@@D@?$basic_string@DU?$char_traits@D@std@@V?$allocator@D@2@@std@@AEAAAEAV01@_KV<lambda_138c3d7c38c85abb84c7fc7bfe5747b7>@@D@Z DD imagerel $LN6
	DD	imagerel $LN6+421
	DD	imagerel $unwind$??$_Reallocate_for@V<lambda_138c3d7c38c85abb84c7fc7bfe5747b7>@@D@?$basic_string@DU?$char_traits@D@std@@V?$allocator@D@2@@std@@AEAAAEAV01@_KV<lambda_138c3d7c38c85abb84c7fc7bfe5747b7>@@D@Z
pdata	ENDS
;	COMDAT pdata
pdata	SEGMENT
$pdata$??R<lambda_66f57f934f28d61049862f64df852ff0>@@QEBA@QEAD_KQEBD@Z DD imagerel $LN3
	DD	imagerel $LN3+124
	DD	imagerel $unwind$??R<lambda_66f57f934f28d61049862f64df852ff0>@@QEBA@QEAD_KQEBD@Z
pdata	ENDS
;	COMDAT pdata
pdata	SEGMENT
$pdata$??$_Reallocate_for@V<lambda_66f57f934f28d61049862f64df852ff0>@@PEBD@?$basic_string@DU?$char_traits@D@std@@V?$allocator@D@2@@std@@AEAAAEAV01@_KV<lambda_66f57f934f28d61049862f64df852ff0>@@PEBD@Z DD imagerel $LN6
	DD	imagerel $LN6+420
	DD	imagerel $unwind$??$_Reallocate_for@V<lambda_66f57f934f28d61049862f64df852ff0>@@PEBD@?$basic_string@DU?$char_traits@D@std@@V?$allocator@D@2@@std@@AEAAAEAV01@_KV<lambda_66f57f934f28d61049862f64df852ff0>@@PEBD@Z
pdata	ENDS
;	COMDAT pdata
pdata	SEGMENT
$pdata$??R<lambda_65e615be2a453ca0576c979606f46740>@@QEBA@QEADQEBD_K12@Z DD imagerel $LN3
	DD	imagerel $LN3+179
	DD	imagerel $unwind$??R<lambda_65e615be2a453ca0576c979606f46740>@@QEBA@QEADQEBD_K12@Z
pdata	ENDS
;	COMDAT pdata
pdata	SEGMENT
$pdata$??$_Reallocate_grow_by@V<lambda_65e615be2a453ca0576c979606f46740>@@PEBD_K@?$basic_string@DU?$char_traits@D@std@@V?$allocator@D@2@@std@@AEAAAEAV01@_KV<lambda_65e615be2a453ca0576c979606f46740>@@PEBD_K@Z DD imagerel $LN6
	DD	imagerel $LN6+580
	DD	imagerel $unwind$??$_Reallocate_grow_by@V<lambda_65e615be2a453ca0576c979606f46740>@@PEBD_K@?$basic_string@DU?$char_traits@D@std@@V?$allocator@D@2@@std@@AEAAAEAV01@_KV<lambda_65e615be2a453ca0576c979606f46740>@@PEBD_K@Z
pdata	ENDS
;	COMDAT pdata
pdata	SEGMENT
$pdata$??$_Pocca@V?$allocator@D@std@@@std@@YAXAEAV?$allocator@D@0@AEBV10@@Z DD imagerel $LN3
	DD	imagerel $LN3+46
	DD	imagerel $unwind$??$_Pocca@V?$allocator@D@std@@@std@@YAXAEAV?$allocator@D@0@AEBV10@@Z
pdata	ENDS
;	COMDAT pdata
pdata	SEGMENT
$pdata$??$_Construct_in_place@PEADAEBQEAD@std@@YAXAEAPEADAEBQEAD@Z DD imagerel $LN3
	DD	imagerel $LN3+111
	DD	imagerel $unwind$??$_Construct_in_place@PEADAEBQEAD@std@@YAXAEAPEADAEBQEAD@Z
pdata	ENDS
;	COMDAT pdata
pdata	SEGMENT
$pdata$??$_Unfancy@D@std@@YAPEADPEAD@Z DD imagerel $LN3
	DD	imagerel $LN3+48
	DD	imagerel $unwind$??$_Unfancy@D@std@@YAPEADPEAD@Z
pdata	ENDS
;	COMDAT pdata
pdata	SEGMENT
$pdata$??$_Construct_in_place@PEADAEAPEAD@std@@YAXAEAPEAD0@Z DD imagerel $LN3
	DD	imagerel $LN3+111
	DD	imagerel $unwind$??$_Construct_in_place@PEADAEAPEAD@std@@YAXAEAPEAD0@Z
pdata	ENDS
;	COMDAT pdata
pdata	SEGMENT
$pdata$??$_Pocma@V?$allocator@D@std@@@std@@YAXAEAV?$allocator@D@0@0@Z DD imagerel $LN3
	DD	imagerel $LN3+58
	DD	imagerel $unwind$??$_Pocma@V?$allocator@D@std@@@std@@YAXAEAV?$allocator@D@0@0@Z
pdata	ENDS
;	COMDAT pdata
pdata	SEGMENT
$pdata$??$?0AEBV?$allocator@D@std@@$$V@?$_Compressed_pair@V?$allocator@D@std@@V?$_String_val@U?$_Simple_types@D@std@@@2@$00@std@@QEAA@U_One_then_variadic_args_t@1@AEBV?$allocator@D@1@@Z DD imagerel $LN3
	DD	imagerel $LN3+84
	DD	imagerel $unwind$??$?0AEBV?$allocator@D@std@@$$V@?$_Compressed_pair@V?$allocator@D@std@@V?$_String_val@U?$_Simple_types@D@std@@@2@$00@std@@QEAA@U_One_then_variadic_args_t@1@AEBV?$allocator@D@1@@Z
pdata	ENDS
;	COMDAT pdata
pdata	SEGMENT
$pdata$??$max@_K@std@@YAAEB_KAEB_K0@Z DD imagerel $LN5
	DD	imagerel $LN5+119
	DD	imagerel $unwind$??$max@_K@std@@YAAEB_KAEB_K0@Z
pdata	ENDS
;	COMDAT pdata
pdata	SEGMENT
$pdata$??$_Get_size_of_n@$0BA@@std@@YA_K_K@Z DD imagerel $LN4
	DD	imagerel $LN4+91
	DD	imagerel $unwind$??$_Get_size_of_n@$0BA@@std@@YA_K_K@Z
pdata	ENDS
;	COMDAT pdata
pdata	SEGMENT
$pdata$??$_Allocate@$0BA@U_Default_allocate_traits@std@@$0A@@std@@YAPEAX_K@Z DD imagerel $LN5
	DD	imagerel $LN5+94
	DD	imagerel $unwind$??$_Allocate@$0BA@U_Default_allocate_traits@std@@$0A@@std@@YAPEAX_K@Z
pdata	ENDS
;	COMDAT pdata
pdata	SEGMENT
$pdata$??$_Deallocate@$0BA@$0A@@std@@YAXPEAX_K@Z DD imagerel $LN4
	DD	imagerel $LN4+98
	DD	imagerel $unwind$??$_Deallocate@$0BA@$0A@@std@@YAXPEAX_K@Z
pdata	ENDS
;	COMDAT pdata
pdata	SEGMENT
$pdata$??$_Destroy_range@V?$allocator@Ubraket_group@@@std@@@std@@YAXPEAUbraket_group@@QEAU1@AEAV?$allocator@Ubraket_group@@@0@@Z DD imagerel $LN3
	DD	imagerel $LN3+51
	DD	imagerel $unwind$??$_Destroy_range@V?$allocator@Ubraket_group@@@std@@@std@@YAXPEAUbraket_group@@QEAU1@AEAV?$allocator@Ubraket_group@@@0@@Z
pdata	ENDS
;	COMDAT pdata
pdata	SEGMENT
$pdata$??$_Destroy_range@V?$allocator@Uop@@@std@@@std@@YAXPEAUop@@QEAU1@AEAV?$allocator@Uop@@@0@@Z DD imagerel $LN6
	DD	imagerel $LN6+116
	DD	imagerel $unwind$??$_Destroy_range@V?$allocator@Uop@@@std@@@std@@YAXPEAUop@@QEAU1@AEAV?$allocator@Uop@@@0@@Z
pdata	ENDS
;	COMDAT pdata
pdata	SEGMENT
$pdata$??$_Get_size_of_n@$0DA@@std@@YA_K_K@Z DD imagerel $LN4
	DD	imagerel $LN4+91
	DD	imagerel $unwind$??$_Get_size_of_n@$0DA@@std@@YA_K_K@Z
pdata	ENDS
;	COMDAT pdata
pdata	SEGMENT
$pdata$??$_Destroy_range@V?$allocator@V?$basic_string@DU?$char_traits@D@std@@V?$allocator@D@2@@std@@@std@@@std@@YAXPEAV?$basic_string@DU?$char_traits@D@std@@V?$allocator@D@2@@0@QEAV10@AEAV?$allocator@V?$basic_string@DU?$char_traits@D@std@@V?$allocator@D@2@@std@@@0@@Z DD imagerel $LN6
	DD	imagerel $LN6+116
	DD	imagerel $unwind$??$_Destroy_range@V?$allocator@V?$basic_string@DU?$char_traits@D@std@@V?$allocator@D@2@@std@@@std@@@std@@YAXPEAV?$basic_string@DU?$char_traits@D@std@@V?$allocator@D@2@@0@QEAV10@AEAV?$allocator@V?$basic_string@DU?$char_traits@D@std@@V?$allocator@D@2@@std@@@0@@Z
pdata	ENDS
;	COMDAT pdata
pdata	SEGMENT
$pdata$??$addressof@V?$_String_val@U?$_Simple_types@D@std@@@std@@@std@@YAPEAV?$_String_val@U?$_Simple_types@D@std@@@0@AEAV10@@Z DD imagerel $LN3
	DD	imagerel $LN3+48
	DD	imagerel $unwind$??$addressof@V?$_String_val@U?$_Simple_types@D@std@@@std@@@std@@YAPEAV?$_String_val@U?$_Simple_types@D@std@@@0@AEAV10@@Z
pdata	ENDS
;	COMDAT pdata
pdata	SEGMENT
$pdata$??$addressof@$$CBV?$_String_val@U?$_Simple_types@D@std@@@std@@@std@@YAPEBV?$_String_val@U?$_Simple_types@D@std@@@0@AEBV10@@Z DD imagerel $LN3
	DD	imagerel $LN3+48
	DD	imagerel $unwind$??$addressof@$$CBV?$_String_val@U?$_Simple_types@D@std@@@std@@@std@@YAPEBV?$_String_val@U?$_Simple_types@D@std@@@0@AEBV10@@Z
pdata	ENDS
;	COMDAT pdata
pdata	SEGMENT
$pdata$??$_Get_size_of_n@$00@std@@YA_K_K@Z DD imagerel $LN3
	DD	imagerel $LN3+52
	DD	imagerel $unwind$??$_Get_size_of_n@$00@std@@YA_K_K@Z
pdata	ENDS
;	COMDAT pdata
pdata	SEGMENT
$pdata$??$addressof@U_Container_proxy@std@@@std@@YAPEAU_Container_proxy@0@AEAU10@@Z DD imagerel $LN3
	DD	imagerel $LN3+48
	DD	imagerel $unwind$??$addressof@U_Container_proxy@std@@@std@@YAPEAU_Container_proxy@0@AEAU10@@Z
pdata	ENDS
;	COMDAT pdata
pdata	SEGMENT
$pdata$??$_Voidify_iter@PEAU_Container_proxy@std@@@std@@YAPEAXPEAU_Container_proxy@0@@Z DD imagerel $LN3
	DD	imagerel $LN3+48
	DD	imagerel $unwind$??$_Voidify_iter@PEAU_Container_proxy@std@@@std@@YAPEAXPEAU_Container_proxy@0@@Z
pdata	ENDS
;	COMDAT pdata
pdata	SEGMENT
$pdata$??$forward@PEAU_Container_base12@std@@@std@@YA$$QEAPEAU_Container_base12@0@AEAPEAU10@@Z DD imagerel $LN3
	DD	imagerel $LN3+48
	DD	imagerel $unwind$??$forward@PEAU_Container_base12@std@@@std@@YA$$QEAPEAU_Container_base12@0@AEAPEAU10@@Z
pdata	ENDS
;	COMDAT pdata
pdata	SEGMENT
$pdata$??$_Insert_string@DU?$char_traits@D@std@@_K@std@@YAAEAV?$basic_ostream@DU?$char_traits@D@std@@@0@AEAV10@QEBD_K@Z DD imagerel $LN26
	DD	imagerel $LN26+1015
	DD	imagerel $unwind$??$_Insert_string@DU?$char_traits@D@std@@_K@std@@YAAEAV?$basic_ostream@DU?$char_traits@D@std@@@0@AEAV10@QEBD_K@Z
pdata	ENDS
;	COMDAT pdata
pdata	SEGMENT
$pdata$?dtor$0@?0???$_Insert_string@DU?$char_traits@D@std@@_K@std@@YAAEAV?$basic_ostream@DU?$char_traits@D@std@@@0@AEAV10@QEBD_K@Z@4HA DD imagerel ?dtor$0@?0???$_Insert_string@DU?$char_traits@D@std@@_K@std@@YAAEAV?$basic_ostream@DU?$char_traits@D@std@@@0@AEAV10@QEBD_K@Z@4HA
	DD	imagerel ?dtor$0@?0???$_Insert_string@DU?$char_traits@D@std@@_K@std@@YAAEAV?$basic_ostream@DU?$char_traits@D@std@@@0@AEAV10@QEBD_K@Z@4HA+36
	DD	imagerel $unwind$?dtor$0@?0???$_Insert_string@DU?$char_traits@D@std@@_K@std@@YAAEAV?$basic_ostream@DU?$char_traits@D@std@@@0@AEAV10@QEBD_K@Z@4HA
pdata	ENDS
;	COMDAT pdata
pdata	SEGMENT
$pdata$?catch$1@?0???$_Insert_string@DU?$char_traits@D@std@@_K@std@@YAAEAV?$basic_ostream@DU?$char_traits@D@std@@@0@AEAV10@QEBD_K@Z@4HA DD imagerel ?catch$1@?0???$_Insert_string@DU?$char_traits@D@std@@_K@std@@YAAEAV?$basic_ostream@DU?$char_traits@D@std@@@0@AEAV10@QEBD_K@Z@4HA
	DD	imagerel ?catch$1@?0???$_Insert_string@DU?$char_traits@D@std@@_K@std@@YAAEAV?$basic_ostream@DU?$char_traits@D@std@@@0@AEAV10@QEBD_K@Z@4HA+80
	DD	imagerel $unwind$?catch$1@?0???$_Insert_string@DU?$char_traits@D@std@@_K@std@@YAAEAV?$basic_ostream@DU?$char_traits@D@std@@@0@AEAV10@QEBD_K@Z@4HA
pdata	ENDS
;	COMDAT pdata
pdata	SEGMENT
$pdata$??$_Voidify_iter@PEAPEAVnode@@@std@@YAPEAXPEAPEAVnode@@@Z DD imagerel $LN3
	DD	imagerel $LN3+48
	DD	imagerel $unwind$??$_Voidify_iter@PEAPEAVnode@@@std@@YAPEAXPEAPEAVnode@@@Z
pdata	ENDS
;	COMDAT pdata
pdata	SEGMENT
$pdata$??$_Deallocate_plain@V?$allocator@U_Container_proxy@std@@@std@@@std@@YAXAEAV?$allocator@U_Container_proxy@std@@@0@QEAU_Container_proxy@0@@Z DD imagerel $LN3
	DD	imagerel $LN3+72
	DD	imagerel $unwind$??$_Deallocate_plain@V?$allocator@U_Container_proxy@std@@@std@@@std@@YAXAEAV?$allocator@U_Container_proxy@std@@@0@QEAU_Container_proxy@0@@Z
pdata	ENDS
;	COMDAT pdata
pdata	SEGMENT
$pdata$??$forward@V?$allocator@Uop@@@std@@@std@@YA$$QEAV?$allocator@Uop@@@0@AEAV10@@Z DD imagerel $LN3
	DD	imagerel $LN3+48
	DD	imagerel $unwind$??$forward@V?$allocator@Uop@@@std@@@std@@YA$$QEAV?$allocator@Uop@@@0@AEAV10@@Z
pdata	ENDS
;	COMDAT pdata
pdata	SEGMENT
$pdata$??$_Uninitialized_copy@PEAUop@@V?$allocator@Uop@@@std@@@std@@YAPEAUop@@QEAU1@0PEAU1@AEAV?$allocator@Uop@@@0@@Z DD imagerel $LN7
	DD	imagerel $LN7+276
	DD	imagerel $unwind$??$_Uninitialized_copy@PEAUop@@V?$allocator@Uop@@@std@@@std@@YAPEAUop@@QEAU1@0PEAU1@AEAV?$allocator@Uop@@@0@@Z
pdata	ENDS
;	COMDAT pdata
pdata	SEGMENT
$pdata$?dtor$0@?0???$_Uninitialized_copy@PEAUop@@V?$allocator@Uop@@@std@@@std@@YAPEAUop@@QEAU1@0PEAU1@AEAV?$allocator@Uop@@@0@@Z@4HA DD imagerel ?dtor$0@?0???$_Uninitialized_copy@PEAUop@@V?$allocator@Uop@@@std@@@std@@YAPEAUop@@QEAU1@0PEAU1@AEAV?$allocator@Uop@@@0@@Z@4HA
	DD	imagerel ?dtor$0@?0???$_Uninitialized_copy@PEAUop@@V?$allocator@Uop@@@std@@@std@@YAPEAUop@@QEAU1@0PEAU1@AEAV?$allocator@Uop@@@0@@Z@4HA+36
	DD	imagerel $unwind$?dtor$0@?0???$_Uninitialized_copy@PEAUop@@V?$allocator@Uop@@@std@@@std@@YAPEAUop@@QEAU1@0PEAU1@AEAV?$allocator@Uop@@@0@@Z@4HA
pdata	ENDS
;	COMDAT pdata
pdata	SEGMENT
$pdata$??$forward@V?$allocator@D@std@@@std@@YA$$QEAV?$allocator@D@0@AEAV10@@Z DD imagerel $LN3
	DD	imagerel $LN3+48
	DD	imagerel $unwind$??$forward@V?$allocator@D@std@@@std@@YA$$QEAV?$allocator@D@0@AEAV10@@Z
pdata	ENDS
;	COMDAT pdata
pdata	SEGMENT
$pdata$??$addressof@PEAD@std@@YAPEAPEADAEAPEAD@Z DD imagerel $LN3
	DD	imagerel $LN3+48
	DD	imagerel $unwind$??$addressof@PEAD@std@@YAPEAPEADAEAPEAD@Z
pdata	ENDS
;	COMDAT pdata
pdata	SEGMENT
$pdata$??$_Voidify_iter@PEAPEAD@std@@YAPEAXPEAPEAD@Z DD imagerel $LN3
	DD	imagerel $LN3+48
	DD	imagerel $unwind$??$_Voidify_iter@PEAPEAD@std@@YAPEAXPEAPEAD@Z
pdata	ENDS
;	COMDAT pdata
pdata	SEGMENT
$pdata$??$forward@AEBQEAD@std@@YAAEBQEADAEBQEAD@Z DD imagerel $LN3
	DD	imagerel $LN3+48
	DD	imagerel $unwind$??$forward@AEBQEAD@std@@YAAEBQEADAEBQEAD@Z
pdata	ENDS
;	COMDAT pdata
pdata	SEGMENT
$pdata$??$forward@AEAPEAD@std@@YAAEAPEADAEAPEAD@Z DD imagerel $LN3
	DD	imagerel $LN3+48
	DD	imagerel $unwind$??$forward@AEAPEAD@std@@YAAEAPEADAEAPEAD@Z
pdata	ENDS
;	COMDAT pdata
pdata	SEGMENT
$pdata$??$forward@AEBV?$allocator@D@std@@@std@@YAAEBV?$allocator@D@0@AEBV10@@Z DD imagerel $LN3
	DD	imagerel $LN3+48
	DD	imagerel $unwind$??$forward@AEBV?$allocator@D@std@@@std@@YAAEBV?$allocator@D@0@AEBV10@@Z
pdata	ENDS
;	COMDAT pdata
pdata	SEGMENT
$pdata$??$_Allocate_manually_vector_aligned@U_Default_allocate_traits@std@@@std@@YAPEAX_K@Z DD imagerel $LN13
	DD	imagerel $LN13+277
	DD	imagerel $unwind$??$_Allocate_manually_vector_aligned@U_Default_allocate_traits@std@@@std@@YAPEAX_K@Z
pdata	ENDS
;	COMDAT pdata
pdata	SEGMENT
$pdata$??$_Unfancy@Uop@@@std@@YAPEAUop@@PEAU1@@Z DD imagerel $LN3
	DD	imagerel $LN3+48
	DD	imagerel $unwind$??$_Unfancy@Uop@@@std@@YAPEAUop@@PEAU1@@Z
pdata	ENDS
;	COMDAT pdata
pdata	SEGMENT
$pdata$??$destroy@Uop@@@?$_Default_allocator_traits@V?$allocator@Uop@@@std@@@std@@SAXAEAV?$allocator@Uop@@@1@QEAUop@@@Z DD imagerel $LN3
	DD	imagerel $LN3+60
	DD	imagerel $unwind$??$destroy@Uop@@@?$_Default_allocator_traits@V?$allocator@Uop@@@std@@@std@@SAXAEAV?$allocator@Uop@@@1@QEAUop@@@Z
pdata	ENDS
;	COMDAT pdata
pdata	SEGMENT
$pdata$??$_Unfancy@V?$basic_string@DU?$char_traits@D@std@@V?$allocator@D@2@@std@@@std@@YAPEAV?$basic_string@DU?$char_traits@D@std@@V?$allocator@D@2@@0@PEAV10@@Z DD imagerel $LN3
	DD	imagerel $LN3+48
	DD	imagerel $unwind$??$_Unfancy@V?$basic_string@DU?$char_traits@D@std@@V?$allocator@D@2@@std@@@std@@YAPEAV?$basic_string@DU?$char_traits@D@std@@V?$allocator@D@2@@0@PEAV10@@Z
pdata	ENDS
;	COMDAT pdata
pdata	SEGMENT
$pdata$??$destroy@V?$basic_string@DU?$char_traits@D@std@@V?$allocator@D@2@@std@@@?$_Default_allocator_traits@V?$allocator@V?$basic_string@DU?$char_traits@D@std@@V?$allocator@D@2@@std@@@std@@@std@@SAXAEAV?$allocator@V?$basic_string@DU?$char_traits@D@std@@V?$allocator@D@2@@std@@@1@QEAV?$basic_string@DU?$char_traits@D@std@@V?$allocator@D@2@@1@@Z DD imagerel $LN3
	DD	imagerel $LN3+60
	DD	imagerel $unwind$??$destroy@V?$basic_string@DU?$char_traits@D@std@@V?$allocator@D@2@@std@@@?$_Default_allocator_traits@V?$allocator@V?$basic_string@DU?$char_traits@D@std@@V?$allocator@D@2@@std@@@std@@@std@@SAXAEAV?$allocator@V?$basic_string@DU?$char_traits@D@std@@V?$allocator@D@2@@std@@@1@QEAV?$basic_string@DU?$char_traits@D@std@@V?$allocator@D@2@@1@@Z
pdata	ENDS
;	COMDAT pdata
pdata	SEGMENT
$pdata$??$_Uninitialized_move@PEAPEAVnode@@V?$allocator@PEAVnode@@@std@@@std@@YAPEAPEAVnode@@QEAPEAV1@0PEAPEAV1@AEAV?$allocator@PEAVnode@@@0@@Z DD imagerel $LN7
	DD	imagerel $LN7+342
	DD	imagerel $unwind$??$_Uninitialized_move@PEAPEAVnode@@V?$allocator@PEAVnode@@@std@@@std@@YAPEAPEAVnode@@QEAPEAV1@0PEAPEAV1@AEAV?$allocator@PEAVnode@@@0@@Z
pdata	ENDS
;	COMDAT pdata
pdata	SEGMENT
$pdata$?dtor$0@?0???$_Uninitialized_move@PEAPEAVnode@@V?$allocator@PEAVnode@@@std@@@std@@YAPEAPEAVnode@@QEAPEAV1@0PEAPEAV1@AEAV?$allocator@PEAVnode@@@0@@Z@4HA DD imagerel ?dtor$0@?0???$_Uninitialized_move@PEAPEAVnode@@V?$allocator@PEAVnode@@@std@@@std@@YAPEAPEAVnode@@QEAPEAV1@0PEAPEAV1@AEAV?$allocator@PEAVnode@@@0@@Z@4HA
	DD	imagerel ?dtor$0@?0???$_Uninitialized_move@PEAPEAVnode@@V?$allocator@PEAVnode@@@std@@@std@@YAPEAPEAVnode@@QEAPEAV1@0PEAPEAV1@AEAV?$allocator@PEAVnode@@@0@@Z@4HA+36
	DD	imagerel $unwind$?dtor$0@?0???$_Uninitialized_move@PEAPEAVnode@@V?$allocator@PEAVnode@@@std@@@std@@YAPEAPEAVnode@@QEAPEAV1@0PEAPEAV1@AEAV?$allocator@PEAVnode@@@0@@Z@4HA
pdata	ENDS
;	COMDAT pdata
pdata	SEGMENT
$pdata$??$_Get_size_of_n@$07@std@@YA_K_K@Z DD imagerel $LN4
	DD	imagerel $LN4+94
	DD	imagerel $unwind$??$_Get_size_of_n@$07@std@@YA_K_K@Z
pdata	ENDS
;	COMDAT pdata
pdata	SEGMENT
$pdata$??$?0AEAV?$allocator@D@std@@$$V@?$_Compressed_pair@V?$allocator@D@std@@V?$_String_val@U?$_Simple_types@D@std@@@2@$00@std@@QEAA@U_One_then_variadic_args_t@1@AEAV?$allocator@D@1@@Z DD imagerel $LN3
	DD	imagerel $LN3+84
	DD	imagerel $unwind$??$?0AEAV?$allocator@D@std@@$$V@?$_Compressed_pair@V?$allocator@D@std@@V?$_String_val@U?$_Simple_types@D@std@@@2@$00@std@@QEAA@U_One_then_variadic_args_t@1@AEAV?$allocator@D@1@@Z
pdata	ENDS
;	COMDAT pdata
pdata	SEGMENT
$pdata$??$_Allocators_equal@V?$allocator@D@std@@@std@@YA_NAEBV?$allocator@D@0@0@Z DD imagerel $LN3
	DD	imagerel $LN3+48
	DD	imagerel $unwind$??$_Allocators_equal@V?$allocator@D@std@@@std@@YA_NAEBV?$allocator@D@0@0@Z
pdata	ENDS
;	COMDAT pdata
pdata	SEGMENT
$pdata$?deallocate@?$_Default_allocator_traits@V?$allocator@U_Container_proxy@std@@@std@@@std@@SAXAEAV?$allocator@U_Container_proxy@std@@@2@QEAU_Container_proxy@2@_K@Z DD imagerel $LN3
	DD	imagerel $LN3+74
	DD	imagerel $unwind$?deallocate@?$_Default_allocator_traits@V?$allocator@U_Container_proxy@std@@@std@@@std@@SAXAEAV?$allocator@U_Container_proxy@std@@@2@QEAU_Container_proxy@2@_K@Z
pdata	ENDS
;	COMDAT pdata
pdata	SEGMENT
$pdata$??$_Get_unwrapped@AEBQEAUop@@@std@@YA?A_TAEBQEAUop@@@Z DD imagerel $LN3
	DD	imagerel $LN3+51
	DD	imagerel $unwind$??$_Get_unwrapped@AEBQEAUop@@@std@@YA?A_TAEBQEAUop@@@Z
pdata	ENDS
;	COMDAT pdata
pdata	SEGMENT
$pdata$??0?$_Uninitialized_backout_al@V?$allocator@Uop@@@std@@@std@@QEAA@PEAUop@@AEAV?$allocator@Uop@@@1@@Z DD imagerel $LN3
	DD	imagerel $LN3+111
	DD	imagerel $unwind$??0?$_Uninitialized_backout_al@V?$allocator@Uop@@@std@@@std@@QEAA@PEAUop@@AEAV?$allocator@Uop@@@1@@Z
pdata	ENDS
;	COMDAT pdata
pdata	SEGMENT
$pdata$??1?$_Uninitialized_backout_al@V?$allocator@Uop@@@std@@@std@@QEAA@XZ DD imagerel $LN3
	DD	imagerel $LN3+78
	DD	imagerel $unwind$??1?$_Uninitialized_backout_al@V?$allocator@Uop@@@std@@@std@@QEAA@XZ
pdata	ENDS
;	COMDAT pdata
pdata	SEGMENT
$pdata$?_Release@?$_Uninitialized_backout_al@V?$allocator@Uop@@@std@@@std@@QEAAPEAUop@@XZ DD imagerel $LN3
	DD	imagerel $LN3+73
	DD	imagerel $unwind$?_Release@?$_Uninitialized_backout_al@V?$allocator@Uop@@@std@@@std@@QEAAPEAUop@@XZ
pdata	ENDS
;	COMDAT pdata
pdata	SEGMENT
$pdata$?__autoclassinit2@?$_Uninitialized_backout_al@V?$allocator@Uop@@@std@@@std@@QEAAX_K@Z DD imagerel $LN3
	DD	imagerel $LN3+50
	DD	imagerel $unwind$?__autoclassinit2@?$_Uninitialized_backout_al@V?$allocator@Uop@@@std@@@std@@QEAAX_K@Z
pdata	ENDS
;	COMDAT pdata
pdata	SEGMENT
$pdata$??$_Emplace_back@AEAUop@@@?$_Uninitialized_backout_al@V?$allocator@Uop@@@std@@@std@@QEAAXAEAUop@@@Z DD imagerel $LN3
	DD	imagerel $LN3+136
	DD	imagerel $unwind$??$_Emplace_back@AEAUop@@@?$_Uninitialized_backout_al@V?$allocator@Uop@@@std@@@std@@QEAAXAEAUop@@@Z
pdata	ENDS
;	COMDAT pdata
pdata	SEGMENT
$pdata$??$_Get_unwrapped@AEBQEAPEAVnode@@@std@@YA?A_TAEBQEAPEAVnode@@@Z DD imagerel $LN3
	DD	imagerel $LN3+51
	DD	imagerel $unwind$??$_Get_unwrapped@AEBQEAPEAVnode@@@std@@YA?A_TAEBQEAPEAVnode@@@Z
pdata	ENDS
;	COMDAT pdata
pdata	SEGMENT
$pdata$??$move@AEAPEAVnode@@@std@@YA$$QEAPEAVnode@@AEAPEAV1@@Z DD imagerel $LN3
	DD	imagerel $LN3+48
	DD	imagerel $unwind$??$move@AEAPEAVnode@@@std@@YA$$QEAPEAVnode@@AEAPEAV1@@Z
pdata	ENDS
;	COMDAT pdata
pdata	SEGMENT
$pdata$??$_Copy_memmove@PEAPEAVnode@@PEAPEAV1@@std@@YAPEAPEAVnode@@PEAPEAV1@00@Z DD imagerel $LN3
	DD	imagerel $LN3+196
	DD	imagerel $unwind$??$_Copy_memmove@PEAPEAVnode@@PEAPEAV1@@std@@YAPEAPEAVnode@@PEAPEAV1@00@Z
pdata	ENDS
;	COMDAT pdata
pdata	SEGMENT
$pdata$??0?$_Uninitialized_backout_al@V?$allocator@PEAVnode@@@std@@@std@@QEAA@PEAPEAVnode@@AEAV?$allocator@PEAVnode@@@1@@Z DD imagerel $LN3
	DD	imagerel $LN3+111
	DD	imagerel $unwind$??0?$_Uninitialized_backout_al@V?$allocator@PEAVnode@@@std@@@std@@QEAA@PEAPEAVnode@@AEAV?$allocator@PEAVnode@@@1@@Z
pdata	ENDS
;	COMDAT pdata
pdata	SEGMENT
$pdata$??1?$_Uninitialized_backout_al@V?$allocator@PEAVnode@@@std@@@std@@QEAA@XZ DD imagerel $LN3
	DD	imagerel $LN3+78
	DD	imagerel $unwind$??1?$_Uninitialized_backout_al@V?$allocator@PEAVnode@@@std@@@std@@QEAA@XZ
pdata	ENDS
;	COMDAT pdata
pdata	SEGMENT
$pdata$?_Release@?$_Uninitialized_backout_al@V?$allocator@PEAVnode@@@std@@@std@@QEAAPEAPEAVnode@@XZ DD imagerel $LN3
	DD	imagerel $LN3+73
	DD	imagerel $unwind$?_Release@?$_Uninitialized_backout_al@V?$allocator@PEAVnode@@@std@@@std@@QEAAPEAPEAVnode@@XZ
pdata	ENDS
;	COMDAT pdata
pdata	SEGMENT
$pdata$?__autoclassinit2@?$_Uninitialized_backout_al@V?$allocator@PEAVnode@@@std@@@std@@QEAAX_K@Z DD imagerel $LN3
	DD	imagerel $LN3+50
	DD	imagerel $unwind$?__autoclassinit2@?$_Uninitialized_backout_al@V?$allocator@PEAVnode@@@std@@@std@@QEAAX_K@Z
pdata	ENDS
;	COMDAT pdata
pdata	SEGMENT
$pdata$??$_Emplace_back@PEAVnode@@@?$_Uninitialized_backout_al@V?$allocator@PEAVnode@@@std@@@std@@QEAAX$$QEAPEAVnode@@@Z DD imagerel $LN3
	DD	imagerel $LN3+136
	DD	imagerel $unwind$??$_Emplace_back@PEAVnode@@@?$_Uninitialized_backout_al@V?$allocator@PEAVnode@@@std@@@std@@QEAAX$$QEAPEAVnode@@@Z
pdata	ENDS
;	COMDAT pdata
pdata	SEGMENT
$pdata$??$forward@AEAV?$allocator@D@std@@@std@@YAAEAV?$allocator@D@0@AEAV10@@Z DD imagerel $LN3
	DD	imagerel $LN3+48
	DD	imagerel $unwind$??$forward@AEAV?$allocator@D@std@@@std@@YAAEAV?$allocator@D@0@AEAV10@@Z
pdata	ENDS
;	COMDAT pdata
pdata	SEGMENT
$pdata$??$forward@AEAUop@@@std@@YAAEAUop@@AEAU1@@Z DD imagerel $LN3
	DD	imagerel $LN3+48
	DD	imagerel $unwind$??$forward@AEAUop@@@std@@YAAEAUop@@AEAU1@@Z
pdata	ENDS
;	COMDAT pdata
pdata	SEGMENT
$pdata$??$construct@Uop@@AEAU1@@?$_Default_allocator_traits@V?$allocator@Uop@@@std@@@std@@SAXAEAV?$allocator@Uop@@@1@QEAUop@@AEAU3@@Z DD imagerel $LN3
	DD	imagerel $LN3+110
	DD	imagerel $unwind$??$construct@Uop@@AEAU1@@?$_Default_allocator_traits@V?$allocator@Uop@@@std@@@std@@SAXAEAV?$allocator@Uop@@@1@QEAUop@@AEAU3@@Z
pdata	ENDS
;	COMDAT pdata
pdata	SEGMENT
$pdata$??$_To_address@PEAPEAVnode@@@std@@YA?A_PAEBQEAPEAVnode@@@Z DD imagerel $LN3
	DD	imagerel $LN3+51
	DD	imagerel $unwind$??$_To_address@PEAPEAVnode@@@std@@YA?A_PAEBQEAPEAVnode@@@Z
pdata	ENDS
;	COMDAT pdata
pdata	SEGMENT
$pdata$??$forward@PEAVnode@@@std@@YA$$QEAPEAVnode@@AEAPEAV1@@Z DD imagerel $LN3
	DD	imagerel $LN3+48
	DD	imagerel $unwind$??$forward@PEAVnode@@@std@@YA$$QEAPEAVnode@@AEAPEAV1@@Z
pdata	ENDS
;	COMDAT pdata
pdata	SEGMENT
$pdata$??$construct@PEAVnode@@PEAV1@@?$_Default_allocator_traits@V?$allocator@PEAVnode@@@std@@@std@@SAXAEAV?$allocator@PEAVnode@@@1@QEAPEAVnode@@$$QEAPEAV3@@Z DD imagerel $LN3
	DD	imagerel $LN3+108
	DD	imagerel $unwind$??$construct@PEAVnode@@PEAV1@@?$_Default_allocator_traits@V?$allocator@PEAVnode@@@std@@@std@@SAXAEAV?$allocator@PEAVnode@@@1@QEAPEAVnode@@$$QEAPEAV3@@Z
pdata	ENDS
;	COMDAT pdata
pdata	SEGMENT
$pdata$??$_Voidify_iter@PEAUop@@@std@@YAPEAXPEAUop@@@Z DD imagerel $LN3
	DD	imagerel $LN3+48
	DD	imagerel $unwind$??$_Voidify_iter@PEAUop@@@std@@YAPEAXPEAUop@@@Z
pdata	ENDS
;	COMDAT __real@c059000000000000
CONST	SEGMENT
__real@c059000000000000 DQ 0c059000000000000r	; -100
CONST	ENDS
;	COMDAT __real@40dfffc000000000
CONST	SEGMENT
__real@40dfffc000000000 DQ 040dfffc000000000r	; 32767
CONST	ENDS
;	COMDAT __real@4059000000000000
CONST	SEGMENT
__real@4059000000000000 DQ 04059000000000000r	; 100
CONST	ENDS
;	COMDAT __real@4014000000000000
CONST	SEGMENT
__real@4014000000000000 DQ 04014000000000000r	; 5
CONST	ENDS
;	COMDAT __real@4010000000000000
CONST	SEGMENT
__real@4010000000000000 DQ 04010000000000000r	; 4
CONST	ENDS
;	COMDAT __real@4000000000000000
CONST	SEGMENT
__real@4000000000000000 DQ 04000000000000000r	; 2
CONST	ENDS
;	COMDAT rtc$TMZ
rtc$TMZ	SEGMENT
_RTC_Shutdown.rtc$TMZ DQ FLAT:_RTC_Shutdown
rtc$TMZ	ENDS
;	COMDAT rtc$IMZ
rtc$IMZ	SEGMENT
_RTC_InitBase.rtc$IMZ DQ FLAT:_RTC_InitBase
rtc$IMZ	ENDS
;	COMDAT ??_R1A@?0A@EA@bad_array_new_length@std@@8
rdata$r	SEGMENT
??_R1A@?0A@EA@bad_array_new_length@std@@8 DD imagerel ??_R0?AVbad_array_new_length@std@@@8 ; std::bad_array_new_length::`RTTI Base Class Descriptor at (0,-1,0,64)'
	DD	02H
	DD	00H
	DD	0ffffffffH
	DD	00H
	DD	040H
	DD	imagerel ??_R3bad_array_new_length@std@@8
rdata$r	ENDS
;	COMDAT ??_R2bad_array_new_length@std@@8
rdata$r	SEGMENT
??_R2bad_array_new_length@std@@8 DD imagerel ??_R1A@?0A@EA@bad_array_new_length@std@@8 ; std::bad_array_new_length::`RTTI Base Class Array'
	DD	imagerel ??_R1A@?0A@EA@bad_alloc@std@@8
	DD	imagerel ??_R1A@?0A@EA@exception@std@@8
	ORG $+3
rdata$r	ENDS
;	COMDAT ??_R3bad_array_new_length@std@@8
rdata$r	SEGMENT
??_R3bad_array_new_length@std@@8 DD 00H			; std::bad_array_new_length::`RTTI Class Hierarchy Descriptor'
	DD	00H
	DD	03H
	DD	imagerel ??_R2bad_array_new_length@std@@8
rdata$r	ENDS
;	COMDAT ??_R4bad_array_new_length@std@@6B@
rdata$r	SEGMENT
??_R4bad_array_new_length@std@@6B@ DD 01H		; std::bad_array_new_length::`RTTI Complete Object Locator'
	DD	00H
	DD	00H
	DD	imagerel ??_R0?AVbad_array_new_length@std@@@8
	DD	imagerel ??_R3bad_array_new_length@std@@8
	DD	imagerel ??_R4bad_array_new_length@std@@6B@
rdata$r	ENDS
;	COMDAT ??_R1A@?0A@EA@bad_alloc@std@@8
rdata$r	SEGMENT
??_R1A@?0A@EA@bad_alloc@std@@8 DD imagerel ??_R0?AVbad_alloc@std@@@8 ; std::bad_alloc::`RTTI Base Class Descriptor at (0,-1,0,64)'
	DD	01H
	DD	00H
	DD	0ffffffffH
	DD	00H
	DD	040H
	DD	imagerel ??_R3bad_alloc@std@@8
rdata$r	ENDS
;	COMDAT ??_R2bad_alloc@std@@8
rdata$r	SEGMENT
??_R2bad_alloc@std@@8 DD imagerel ??_R1A@?0A@EA@bad_alloc@std@@8 ; std::bad_alloc::`RTTI Base Class Array'
	DD	imagerel ??_R1A@?0A@EA@exception@std@@8
	ORG $+3
rdata$r	ENDS
;	COMDAT ??_R3bad_alloc@std@@8
rdata$r	SEGMENT
??_R3bad_alloc@std@@8 DD 00H				; std::bad_alloc::`RTTI Class Hierarchy Descriptor'
	DD	00H
	DD	02H
	DD	imagerel ??_R2bad_alloc@std@@8
rdata$r	ENDS
;	COMDAT ??_R4bad_alloc@std@@6B@
rdata$r	SEGMENT
??_R4bad_alloc@std@@6B@ DD 01H				; std::bad_alloc::`RTTI Complete Object Locator'
	DD	00H
	DD	00H
	DD	imagerel ??_R0?AVbad_alloc@std@@@8
	DD	imagerel ??_R3bad_alloc@std@@8
	DD	imagerel ??_R4bad_alloc@std@@6B@
rdata$r	ENDS
;	COMDAT ??_R1A@?0A@EA@exception@std@@8
rdata$r	SEGMENT
??_R1A@?0A@EA@exception@std@@8 DD imagerel ??_R0?AVexception@std@@@8 ; std::exception::`RTTI Base Class Descriptor at (0,-1,0,64)'
	DD	00H
	DD	00H
	DD	0ffffffffH
	DD	00H
	DD	040H
	DD	imagerel ??_R3exception@std@@8
rdata$r	ENDS
;	COMDAT ??_R2exception@std@@8
rdata$r	SEGMENT
??_R2exception@std@@8 DD imagerel ??_R1A@?0A@EA@exception@std@@8 ; std::exception::`RTTI Base Class Array'
	ORG $+3
rdata$r	ENDS
;	COMDAT ??_R3exception@std@@8
rdata$r	SEGMENT
??_R3exception@std@@8 DD 00H				; std::exception::`RTTI Class Hierarchy Descriptor'
	DD	00H
	DD	01H
	DD	imagerel ??_R2exception@std@@8
rdata$r	ENDS
;	COMDAT ??_R4exception@std@@6B@
rdata$r	SEGMENT
??_R4exception@std@@6B@ DD 01H				; std::exception::`RTTI Complete Object Locator'
	DD	00H
	DD	00H
	DD	imagerel ??_R0?AVexception@std@@@8
	DD	imagerel ??_R3exception@std@@8
	DD	imagerel ??_R4exception@std@@6B@
rdata$r	ENDS
;	COMDAT ??_C@_1EO@GFNCMDLA@?$AAs?$AAt?$AAd?$AA?3?$AA?3?$AA_?$AAA?$AAl?$AAl?$AAo?$AAc?$AAa?$AAt?$AAe?$AA_@
CONST	SEGMENT
??_C@_1EO@GFNCMDLA@?$AAs?$AAt?$AAd?$AA?3?$AA?3?$AA_?$AAA?$AAl?$AAl?$AAo?$AAc?$AAa?$AAt?$AAe?$AA_@ DB 's'
	DB	00H, 't', 00H, 'd', 00H, ':', 00H, ':', 00H, '_', 00H, 'A', 00H
	DB	'l', 00H, 'l', 00H, 'o', 00H, 'c', 00H, 'a', 00H, 't', 00H, 'e'
	DB	00H, '_', 00H, 'm', 00H, 'a', 00H, 'n', 00H, 'u', 00H, 'a', 00H
	DB	'l', 00H, 'l', 00H, 'y', 00H, '_', 00H, 'v', 00H, 'e', 00H, 'c'
	DB	00H, 't', 00H, 'o', 00H, 'r', 00H, '_', 00H, 'a', 00H, 'l', 00H
	DB	'i', 00H, 'g', 00H, 'n', 00H, 'e', 00H, 'd', 00H, 00H, 00H ; `string'
CONST	ENDS
;	COMDAT ??_C@_0BA@FOIKENOD@vector?5too?5long@
CONST	SEGMENT
??_C@_0BA@FOIKENOD@vector?5too?5long@ DB 'vector too long', 00H ; `string'
CONST	ENDS
;	COMDAT ??_C@_1BPK@IDOEFEOL@?$AA?$CC?$AAY?$AAo?$AAu?$AA?5?$AAc?$AAa?$AAn?$AAn?$AAo?$AAt?$AA?5?$AAc?$AAo?$AAn@
CONST	SEGMENT
??_C@_1BPK@IDOEFEOL@?$AA?$CC?$AAY?$AAo?$AAu?$AA?5?$AAc?$AAa?$AAn?$AAn?$AAo?$AAt?$AA?5?$AAc?$AAo?$AAn@ DB '"'
	DB	00H, 'Y', 00H, 'o', 00H, 'u', 00H, ' ', 00H, 'c', 00H, 'a', 00H
	DB	'n', 00H, 'n', 00H, 'o', 00H, 't', 00H, ' ', 00H, 'c', 00H, 'o'
	DB	00H, 'n', 00H, 'c', 00H, 'a', 00H, 't', 00H, 'e', 00H, 'n', 00H
	DB	'a', 00H, 't', 00H, 'e', 00H, ' ', 00H, 't', 00H, 'h', 00H, 'e'
	DB	00H, ' ', 00H, 's', 00H, 'a', 00H, 'm', 00H, 'e', 00H, ' ', 00H
	DB	'm', 00H, 'o', 00H, 'v', 00H, 'e', 00H, 'd', 00H, ' ', 00H, 's'
	DB	00H, 't', 00H, 'r', 00H, 'i', 00H, 'n', 00H, 'g', 00H, ' ', 00H
	DB	't', 00H, 'o', 00H, ' ', 00H, 'i', 00H, 't', 00H, 's', 00H, 'e'
	DB	00H, 'l', 00H, 'f', 00H, '.', 00H, ' ', 00H, 'S', 00H, 'e', 00H
	DB	'e', 00H, ' ', 00H, '"', 00H, ' ', 00H, '"', 00H, 'N', 00H, '4'
	DB	00H, '8', 00H, '4', 00H, '9', 00H, ' ', 00H, '[', 00H, 'r', 00H
	DB	'e', 00H, 's', 00H, '.', 00H, 'o', 00H, 'n', 00H, '.', 00H, 'a'
	DB	00H, 'r', 00H, 'g', 00H, 'u', 00H, 'm', 00H, 'e', 00H, 'n', 00H
	DB	't', 00H, 's', 00H, ']', 00H, '/', 00H, '1', 00H, '.', 00H, '3'
	DB	00H, ':', 00H, ' ', 00H, 'I', 00H, 'f', 00H, ' ', 00H, 'a', 00H
	DB	' ', 00H, 'f', 00H, 'u', 00H, 'n', 00H, 'c', 00H, 't', 00H, 'i'
	DB	00H, 'o', 00H, 'n', 00H, ' ', 00H, 'a', 00H, 'r', 00H, 'g', 00H
	DB	'u', 00H, 'm', 00H, 'e', 00H, 'n', 00H, 't', 00H, ' ', 00H, 'b'
	DB	00H, 'i', 00H, 'n', 00H, 'd', 00H, 's', 00H, ' ', 00H, 't', 00H
	DB	'o', 00H, ' ', 00H, 'a', 00H, 'n', 00H, ' ', 00H, 'r', 00H, 'v'
	DB	00H, 'a', 00H, 'l', 00H, 'u', 00H, 'e', 00H, ' ', 00H, 'r', 00H
	DB	'e', 00H, 'f', 00H, 'e', 00H, 'r', 00H, 'e', 00H, 'n', 00H, 'c'
	DB	00H, 'e', 00H, ' ', 00H, '"', 00H, ' ', 00H, '"', 00H, 'p', 00H
	DB	'a', 00H, 'r', 00H, 'a', 00H, 'm', 00H, 'e', 00H, 't', 00H, 'e'
	DB	00H, 'r', 00H, ',', 00H, ' ', 00H, 't', 00H, 'h', 00H, 'e', 00H
	DB	' ', 00H, 'i', 00H, 'm', 00H, 'p', 00H, 'l', 00H, 'e', 00H, 'm'
	DB	00H, 'e', 00H, 'n', 00H, 't', 00H, 'a', 00H, 't', 00H, 'i', 00H
	DB	'o', 00H, 'n', 00H, ' ', 00H, 'm', 00H, 'a', 00H, 'y', 00H, ' '
	DB	00H, 'a', 00H, 's', 00H, 's', 00H, 'u', 00H, 'm', 00H, 'e', 00H
	DB	' ', 00H, 't', 00H, 'h', 00H, 'a', 00H, 't', 00H, ' ', 00H, 't'
	DB	00H, 'h', 00H, 'i', 00H, 's', 00H, ' ', 00H, 'p', 00H, 'a', 00H
	DB	'r', 00H, 'a', 00H, 'm', 00H, 'e', 00H, 't', 00H, 'e', 00H, 'r'
	DB	00H, ' ', 00H, 'i', 00H, 's', 00H, ' ', 00H, 'a', 00H, ' ', 00H
	DB	'u', 00H, 'n', 00H, 'i', 00H, 'q', 00H, 'u', 00H, 'e', 00H, ' '
	DB	00H, 'r', 00H, 'e', 00H, 'f', 00H, 'e', 00H, 'r', 00H, 'e', 00H
	DB	'n', 00H, 'c', 00H, 'e', 00H, ' ', 00H, '"', 00H, ' ', 00H, '"'
	DB	00H, 't', 00H, 'o', 00H, ' ', 00H, 't', 00H, 'h', 00H, 'i', 00H
	DB	's', 00H, ' ', 00H, 'a', 00H, 'r', 00H, 'g', 00H, 'u', 00H, 'm'
	DB	00H, 'e', 00H, 'n', 00H, 't', 00H, '"', 00H, 00H, 00H ; `string'
CONST	ENDS
;	COMDAT ??_C@_1CA@DFIMIFBJ@?$AAs?$AAt?$AAd?$AA?3?$AA?3?$AAo?$AAp?$AAe?$AAr?$AAa?$AAt?$AAo?$AAr?$AA?5?$AA?$CL@
CONST	SEGMENT
??_C@_1CA@DFIMIFBJ@?$AAs?$AAt?$AAd?$AA?3?$AA?3?$AAo?$AAp?$AAe?$AAr?$AAa?$AAt?$AAo?$AAr?$AA?5?$AA?$CL@ DB 's'
	DB	00H, 't', 00H, 'd', 00H, ':', 00H, ':', 00H, 'o', 00H, 'p', 00H
	DB	'e', 00H, 'r', 00H, 'a', 00H, 't', 00H, 'o', 00H, 'r', 00H, ' '
	DB	00H, '+', 00H, 00H, 00H			; `string'
CONST	ENDS
;	COMDAT ??_C@_0PC@KBJGOMJG@You?5cannot?5concatenate?5the?5same@
CONST	SEGMENT
??_C@_0PC@KBJGOMJG@You?5cannot?5concatenate?5the?5same@ DB 'You cannot co'
	DB	'ncatenate the same moved string to itself. See N4849 [res.on.'
	DB	'arguments]/1.3: If a function argument binds to an rvalue ref'
	DB	'erence parameter, the implementation may assume that this par'
	DB	'ameter is a unique reference to this argument', 00H ; `string'
CONST	ENDS
;	COMDAT ??_C@_0BI@CFPLBAOH@invalid?5string?5position@
CONST	SEGMENT
??_C@_0BI@CFPLBAOH@invalid?5string?5position@ DB 'invalid string position'
	DB	00H						; `string'
CONST	ENDS
;	COMDAT ??_C@_1LO@NPPEKPAI@?$AAs?$AAt?$AAd?$AA?3?$AA?3?$AAb?$AAa?$AAs?$AAi?$AAc?$AA_?$AAs?$AAt?$AAr?$AAi@
CONST	SEGMENT
??_C@_1LO@NPPEKPAI@?$AAs?$AAt?$AAd?$AA?3?$AA?3?$AAb?$AAa?$AAs?$AAi?$AAc?$AA_?$AAs?$AAt?$AAr?$AAi@ DB 's'
	DB	00H, 't', 00H, 'd', 00H, ':', 00H, ':', 00H, 'b', 00H, 'a', 00H
	DB	's', 00H, 'i', 00H, 'c', 00H, '_', 00H, 's', 00H, 't', 00H, 'r'
	DB	00H, 'i', 00H, 'n', 00H, 'g', 00H, '<', 00H, 'c', 00H, 'h', 00H
	DB	'a', 00H, 'r', 00H, ',', 00H, 's', 00H, 't', 00H, 'r', 00H, 'u'
	DB	00H, 'c', 00H, 't', 00H, ' ', 00H, 's', 00H, 't', 00H, 'd', 00H
	DB	':', 00H, ':', 00H, 'c', 00H, 'h', 00H, 'a', 00H, 'r', 00H, '_'
	DB	00H, 't', 00H, 'r', 00H, 'a', 00H, 'i', 00H, 't', 00H, 's', 00H
	DB	'<', 00H, 'c', 00H, 'h', 00H, 'a', 00H, 'r', 00H, '>', 00H, ','
	DB	00H, 'c', 00H, 'l', 00H, 'a', 00H, 's', 00H, 's', 00H, ' ', 00H
	DB	's', 00H, 't', 00H, 'd', 00H, ':', 00H, ':', 00H, 'a', 00H, 'l'
	DB	00H, 'l', 00H, 'o', 00H, 'c', 00H, 'a', 00H, 't', 00H, 'o', 00H
	DB	'r', 00H, '<', 00H, 'c', 00H, 'h', 00H, 'a', 00H, 'r', 00H, '>'
	DB	00H, ' ', 00H, '>', 00H, ':', 00H, ':', 00H, 'o', 00H, 'p', 00H
	DB	'e', 00H, 'r', 00H, 'a', 00H, 't', 00H, 'o', 00H, 'r', 00H, ' '
	DB	00H, '[', 00H, ']', 00H, 00H, 00H		; `string'
CONST	ENDS
;	COMDAT ??_C@_1EA@OADAPGGK@?$AA?$CC?$AAs?$AAt?$AAr?$AAi?$AAn?$AAg?$AA?5?$AAs?$AAu?$AAb?$AAs?$AAc?$AAr?$AAi@
CONST	SEGMENT
??_C@_1EA@OADAPGGK@?$AA?$CC?$AAs?$AAt?$AAr?$AAi?$AAn?$AAg?$AA?5?$AAs?$AAu?$AAb?$AAs?$AAc?$AAr?$AAi@ DB '"'
	DB	00H, 's', 00H, 't', 00H, 'r', 00H, 'i', 00H, 'n', 00H, 'g', 00H
	DB	' ', 00H, 's', 00H, 'u', 00H, 'b', 00H, 's', 00H, 'c', 00H, 'r'
	DB	00H, 'i', 00H, 'p', 00H, 't', 00H, ' ', 00H, 'o', 00H, 'u', 00H
	DB	't', 00H, ' ', 00H, 'o', 00H, 'f', 00H, ' ', 00H, 'r', 00H, 'a'
	DB	00H, 'n', 00H, 'g', 00H, 'e', 00H, '"', 00H, 00H, 00H ; `string'
CONST	ENDS
;	COMDAT ??_C@_1NA@CHJCONEK@?$AAC?$AA?3?$AA?2?$AAP?$AAr?$AAo?$AAg?$AAr?$AAa?$AAm?$AA?5?$AAF?$AAi?$AAl?$AAe@
CONST	SEGMENT
??_C@_1NA@CHJCONEK@?$AAC?$AA?3?$AA?2?$AAP?$AAr?$AAo?$AAg?$AAr?$AAa?$AAm?$AA?5?$AAF?$AAi?$AAl?$AAe@ DB 'C'
	DB	00H, ':', 00H, '\', 00H, 'P', 00H, 'r', 00H, 'o', 00H, 'g', 00H
	DB	'r', 00H, 'a', 00H, 'm', 00H, ' ', 00H, 'F', 00H, 'i', 00H, 'l'
	DB	00H, 'e', 00H, 's', 00H, ' ', 00H, '(', 00H, 'x', 00H, '8', 00H
	DB	'6', 00H, ')', 00H, '\', 00H, 'M', 00H, 'i', 00H, 'c', 00H, 'r'
	DB	00H, 'o', 00H, 's', 00H, 'o', 00H, 'f', 00H, 't', 00H, ' ', 00H
	DB	'V', 00H, 'i', 00H, 's', 00H, 'u', 00H, 'a', 00H, 'l', 00H, ' '
	DB	00H, 'S', 00H, 't', 00H, 'u', 00H, 'd', 00H, 'i', 00H, 'o', 00H
	DB	'\', 00H, '2', 00H, '0', 00H, '1', 00H, '9', 00H, '\', 00H, 'C'
	DB	00H, 'o', 00H, 'm', 00H, 'm', 00H, 'u', 00H, 'n', 00H, 'i', 00H
	DB	't', 00H, 'y', 00H, '\', 00H, 'V', 00H, 'C', 00H, '\', 00H, 'T'
	DB	00H, 'o', 00H, 'o', 00H, 'l', 00H, 's', 00H, '\', 00H, 'M', 00H
	DB	'S', 00H, 'V', 00H, 'C', 00H, '\', 00H, '1', 00H, '4', 00H, '.'
	DB	00H, '2', 00H, '9', 00H, '.', 00H, '3', 00H, '0', 00H, '1', 00H
	DB	'3', 00H, '3', 00H, '\', 00H, 'i', 00H, 'n', 00H, 'c', 00H, 'l'
	DB	00H, 'u', 00H, 'd', 00H, 'e', 00H, '\', 00H, 'x', 00H, 's', 00H
	DB	't', 00H, 'r', 00H, 'i', 00H, 'n', 00H, 'g', 00H, 00H, 00H ; `string'
CONST	ENDS
;	COMDAT ??_C@_0GI@DEIBJNCC@C?3?2Program?5Files?5?$CIx86?$CJ?2Microsof@
CONST	SEGMENT
??_C@_0GI@DEIBJNCC@C?3?2Program?5Files?5?$CIx86?$CJ?2Microsof@ DB 'C:\Pro'
	DB	'gram Files (x86)\Microsoft Visual Studio\2019\Community\VC\To'
	DB	'ols\MSVC\14.29.30133\include\xstring', 00H	; `string'
CONST	ENDS
;	COMDAT ??_C@_0BO@LFGPDMIB@string?5subscript?5out?5of?5range@
CONST	SEGMENT
??_C@_0BO@LFGPDMIB@string?5subscript?5out?5of?5range@ DB 'string subscrip'
	DB	't out of range', 00H			; `string'
CONST	ENDS
;	COMDAT ??_C@_1BME@NCIPHHDN@?$AAs?$AAt?$AAd?$AA?3?$AA?3?$AAv?$AAe?$AAc?$AAt?$AAo?$AAr?$AA?$DM?$AAc?$AAl?$AAa@
CONST	SEGMENT
??_C@_1BME@NCIPHHDN@?$AAs?$AAt?$AAd?$AA?3?$AA?3?$AAv?$AAe?$AAc?$AAt?$AAo?$AAr?$AA?$DM?$AAc?$AAl?$AAa@ DB 's'
	DB	00H, 't', 00H, 'd', 00H, ':', 00H, ':', 00H, 'v', 00H, 'e', 00H
	DB	'c', 00H, 't', 00H, 'o', 00H, 'r', 00H, '<', 00H, 'c', 00H, 'l'
	DB	00H, 'a', 00H, 's', 00H, 's', 00H, ' ', 00H, 's', 00H, 't', 00H
	DB	'd', 00H, ':', 00H, ':', 00H, 'b', 00H, 'a', 00H, 's', 00H, 'i'
	DB	00H, 'c', 00H, '_', 00H, 's', 00H, 't', 00H, 'r', 00H, 'i', 00H
	DB	'n', 00H, 'g', 00H, '<', 00H, 'c', 00H, 'h', 00H, 'a', 00H, 'r'
	DB	00H, ',', 00H, 's', 00H, 't', 00H, 'r', 00H, 'u', 00H, 'c', 00H
	DB	't', 00H, ' ', 00H, 's', 00H, 't', 00H, 'd', 00H, ':', 00H, ':'
	DB	00H, 'c', 00H, 'h', 00H, 'a', 00H, 'r', 00H, '_', 00H, 't', 00H
	DB	'r', 00H, 'a', 00H, 'i', 00H, 't', 00H, 's', 00H, '<', 00H, 'c'
	DB	00H, 'h', 00H, 'a', 00H, 'r', 00H, '>', 00H, ',', 00H, 'c', 00H
	DB	'l', 00H, 'a', 00H, 's', 00H, 's', 00H, ' ', 00H, 's', 00H, 't'
	DB	00H, 'd', 00H, ':', 00H, ':', 00H, 'a', 00H, 'l', 00H, 'l', 00H
	DB	'o', 00H, 'c', 00H, 'a', 00H, 't', 00H, 'o', 00H, 'r', 00H, '<'
	DB	00H, 'c', 00H, 'h', 00H, 'a', 00H, 'r', 00H, '>', 00H, ' ', 00H
	DB	'>', 00H, ',', 00H, 'c', 00H, 'l', 00H, 'a', 00H, 's', 00H, 's'
	DB	00H, ' ', 00H, 's', 00H, 't', 00H, 'd', 00H, ':', 00H, ':', 00H
	DB	'a', 00H, 'l', 00H, 'l', 00H, 'o', 00H, 'c', 00H, 'a', 00H, 't'
	DB	00H, 'o', 00H, 'r', 00H, '<', 00H, 'c', 00H, 'l', 00H, 'a', 00H
	DB	's', 00H, 's', 00H, ' ', 00H, 's', 00H, 't', 00H, 'd', 00H, ':'
	DB	00H, ':', 00H, 'b', 00H, 'a', 00H, 's', 00H, 'i', 00H, 'c', 00H
	DB	'_', 00H, 's', 00H, 't', 00H, 'r', 00H, 'i', 00H, 'n', 00H, 'g'
	DB	00H, '<', 00H, 'c', 00H, 'h', 00H, 'a', 00H, 'r', 00H, ',', 00H
	DB	's', 00H, 't', 00H, 'r', 00H, 'u', 00H, 'c', 00H, 't', 00H, ' '
	DB	00H, 's', 00H, 't', 00H, 'd', 00H, ':', 00H, ':', 00H, 'c', 00H
	DB	'h', 00H, 'a', 00H, 'r', 00H, '_', 00H, 't', 00H, 'r', 00H, 'a'
	DB	00H, 'i', 00H, 't', 00H, 's', 00H, '<', 00H, 'c', 00H, 'h', 00H
	DB	'a', 00H, 'r', 00H, '>', 00H, ',', 00H, 'c', 00H, 'l', 00H, 'a'
	DB	00H, 's', 00H, 's', 00H, ' ', 00H, 's', 00H, 't', 00H, 'd', 00H
	DB	':', 00H, ':', 00H, 'a', 00H, 'l', 00H, 'l', 00H, 'o', 00H, 'c'
	DB	00H, 'a', 00H, 't', 00H, 'o', 00H, 'r', 00H, '<', 00H, 'c', 00H
	DB	'h', 00H, 'a', 00H, 'r', 00H, '>', 00H, ' ', 00H, '>', 00H, ' '
	DB	00H, '>', 00H, ' ', 00H, '>', 00H, ':', 00H, ':', 00H, 'o', 00H
	DB	'p', 00H, 'e', 00H, 'r', 00H, 'a', 00H, 't', 00H, 'o', 00H, 'r'
	DB	00H, ' ', 00H, '[', 00H, ']', 00H, 00H, 00H	; `string'
CONST	ENDS
;	COMDAT ??_C@_1EA@LEKOKFNB@?$AA?$CC?$AAv?$AAe?$AAc?$AAt?$AAo?$AAr?$AA?5?$AAs?$AAu?$AAb?$AAs?$AAc?$AAr?$AAi@
CONST	SEGMENT
??_C@_1EA@LEKOKFNB@?$AA?$CC?$AAv?$AAe?$AAc?$AAt?$AAo?$AAr?$AA?5?$AAs?$AAu?$AAb?$AAs?$AAc?$AAr?$AAi@ DB '"'
	DB	00H, 'v', 00H, 'e', 00H, 'c', 00H, 't', 00H, 'o', 00H, 'r', 00H
	DB	' ', 00H, 's', 00H, 'u', 00H, 'b', 00H, 's', 00H, 'c', 00H, 'r'
	DB	00H, 'i', 00H, 'p', 00H, 't', 00H, ' ', 00H, 'o', 00H, 'u', 00H
	DB	't', 00H, ' ', 00H, 'o', 00H, 'f', 00H, ' ', 00H, 'r', 00H, 'a'
	DB	00H, 'n', 00H, 'g', 00H, 'e', 00H, '"', 00H, 00H, 00H ; `string'
CONST	ENDS
;	COMDAT ??_C@_1IK@LEEOEPLD@?$AAs?$AAt?$AAd?$AA?3?$AA?3?$AAv?$AAe?$AAc?$AAt?$AAo?$AAr?$AA?$DM?$AAs?$AAt?$AAr@
CONST	SEGMENT
??_C@_1IK@LEEOEPLD@?$AAs?$AAt?$AAd?$AA?3?$AA?3?$AAv?$AAe?$AAc?$AAt?$AAo?$AAr?$AA?$DM?$AAs?$AAt?$AAr@ DB 's'
	DB	00H, 't', 00H, 'd', 00H, ':', 00H, ':', 00H, 'v', 00H, 'e', 00H
	DB	'c', 00H, 't', 00H, 'o', 00H, 'r', 00H, '<', 00H, 's', 00H, 't'
	DB	00H, 'r', 00H, 'u', 00H, 'c', 00H, 't', 00H, ' ', 00H, 'o', 00H
	DB	'p', 00H, ',', 00H, 'c', 00H, 'l', 00H, 'a', 00H, 's', 00H, 's'
	DB	00H, ' ', 00H, 's', 00H, 't', 00H, 'd', 00H, ':', 00H, ':', 00H
	DB	'a', 00H, 'l', 00H, 'l', 00H, 'o', 00H, 'c', 00H, 'a', 00H, 't'
	DB	00H, 'o', 00H, 'r', 00H, '<', 00H, 's', 00H, 't', 00H, 'r', 00H
	DB	'u', 00H, 'c', 00H, 't', 00H, ' ', 00H, 'o', 00H, 'p', 00H, '>'
	DB	00H, ' ', 00H, '>', 00H, ':', 00H, ':', 00H, 'o', 00H, 'p', 00H
	DB	'e', 00H, 'r', 00H, 'a', 00H, 't', 00H, 'o', 00H, 'r', 00H, ' '
	DB	00H, '[', 00H, ']', 00H, 00H, 00H		; `string'
CONST	ENDS
;	COMDAT ??_C@_0BO@PFKOHNJC@vector?5subscript?5out?5of?5range@
CONST	SEGMENT
??_C@_0BO@PFKOHNJC@vector?5subscript?5out?5of?5range@ DB 'vector subscrip'
	DB	't out of range', 00H			; `string'
CONST	ENDS
;	COMDAT ??_C@_1EC@GDGFILAB@?$AA?$CC?$AAf?$AAr?$AAo?$AAn?$AAt?$AA?$CI?$AA?$CJ?$AA?5?$AAc?$AAa?$AAl?$AAl?$AAe?$AAd@
CONST	SEGMENT
??_C@_1EC@GDGFILAB@?$AA?$CC?$AAf?$AAr?$AAo?$AAn?$AAt?$AA?$CI?$AA?$CJ?$AA?5?$AAc?$AAa?$AAl?$AAl?$AAe?$AAd@ DB '"'
	DB	00H, 'f', 00H, 'r', 00H, 'o', 00H, 'n', 00H, 't', 00H, '(', 00H
	DB	')', 00H, ' ', 00H, 'c', 00H, 'a', 00H, 'l', 00H, 'l', 00H, 'e'
	DB	00H, 'd', 00H, ' ', 00H, 'o', 00H, 'n', 00H, ' ', 00H, 'e', 00H
	DB	'm', 00H, 'p', 00H, 't', 00H, 'y', 00H, ' ', 00H, 'v', 00H, 'e'
	DB	00H, 'c', 00H, 't', 00H, 'o', 00H, 'r', 00H, '"', 00H, 00H, 00H ; `string'
CONST	ENDS
;	COMDAT ??_C@_1IK@COOKACPM@?$AAs?$AAt?$AAd?$AA?3?$AA?3?$AAv?$AAe?$AAc?$AAt?$AAo?$AAr?$AA?$DM?$AAc?$AAl?$AAa@
CONST	SEGMENT
??_C@_1IK@COOKACPM@?$AAs?$AAt?$AAd?$AA?3?$AA?3?$AAv?$AAe?$AAc?$AAt?$AAo?$AAr?$AA?$DM?$AAc?$AAl?$AAa@ DB 's'
	DB	00H, 't', 00H, 'd', 00H, ':', 00H, ':', 00H, 'v', 00H, 'e', 00H
	DB	'c', 00H, 't', 00H, 'o', 00H, 'r', 00H, '<', 00H, 'c', 00H, 'l'
	DB	00H, 'a', 00H, 's', 00H, 's', 00H, ' ', 00H, 'n', 00H, 'o', 00H
	DB	'd', 00H, 'e', 00H, ' ', 00H, '*', 00H, ',', 00H, 'c', 00H, 'l'
	DB	00H, 'a', 00H, 's', 00H, 's', 00H, ' ', 00H, 's', 00H, 't', 00H
	DB	'd', 00H, ':', 00H, ':', 00H, 'a', 00H, 'l', 00H, 'l', 00H, 'o'
	DB	00H, 'c', 00H, 'a', 00H, 't', 00H, 'o', 00H, 'r', 00H, '<', 00H
	DB	'c', 00H, 'l', 00H, 'a', 00H, 's', 00H, 's', 00H, ' ', 00H, 'n'
	DB	00H, 'o', 00H, 'd', 00H, 'e', 00H, ' ', 00H, '*', 00H, '>', 00H
	DB	' ', 00H, '>', 00H, ':', 00H, ':', 00H, 'f', 00H, 'r', 00H, 'o'
	DB	00H, 'n', 00H, 't', 00H, 00H, 00H		; `string'
CONST	ENDS
;	COMDAT ??_C@_1MO@NOHEJINP@?$AAC?$AA?3?$AA?2?$AAP?$AAr?$AAo?$AAg?$AAr?$AAa?$AAm?$AA?5?$AAF?$AAi?$AAl?$AAe@
CONST	SEGMENT
??_C@_1MO@NOHEJINP@?$AAC?$AA?3?$AA?2?$AAP?$AAr?$AAo?$AAg?$AAr?$AAa?$AAm?$AA?5?$AAF?$AAi?$AAl?$AAe@ DB 'C'
	DB	00H, ':', 00H, '\', 00H, 'P', 00H, 'r', 00H, 'o', 00H, 'g', 00H
	DB	'r', 00H, 'a', 00H, 'm', 00H, ' ', 00H, 'F', 00H, 'i', 00H, 'l'
	DB	00H, 'e', 00H, 's', 00H, ' ', 00H, '(', 00H, 'x', 00H, '8', 00H
	DB	'6', 00H, ')', 00H, '\', 00H, 'M', 00H, 'i', 00H, 'c', 00H, 'r'
	DB	00H, 'o', 00H, 's', 00H, 'o', 00H, 'f', 00H, 't', 00H, ' ', 00H
	DB	'V', 00H, 'i', 00H, 's', 00H, 'u', 00H, 'a', 00H, 'l', 00H, ' '
	DB	00H, 'S', 00H, 't', 00H, 'u', 00H, 'd', 00H, 'i', 00H, 'o', 00H
	DB	'\', 00H, '2', 00H, '0', 00H, '1', 00H, '9', 00H, '\', 00H, 'C'
	DB	00H, 'o', 00H, 'm', 00H, 'm', 00H, 'u', 00H, 'n', 00H, 'i', 00H
	DB	't', 00H, 'y', 00H, '\', 00H, 'V', 00H, 'C', 00H, '\', 00H, 'T'
	DB	00H, 'o', 00H, 'o', 00H, 'l', 00H, 's', 00H, '\', 00H, 'M', 00H
	DB	'S', 00H, 'V', 00H, 'C', 00H, '\', 00H, '1', 00H, '4', 00H, '.'
	DB	00H, '2', 00H, '9', 00H, '.', 00H, '3', 00H, '0', 00H, '1', 00H
	DB	'3', 00H, '3', 00H, '\', 00H, 'i', 00H, 'n', 00H, 'c', 00H, 'l'
	DB	00H, 'u', 00H, 'd', 00H, 'e', 00H, '\', 00H, 'v', 00H, 'e', 00H
	DB	'c', 00H, 't', 00H, 'o', 00H, 'r', 00H, 00H, 00H ; `string'
CONST	ENDS
;	COMDAT ??_C@_0GH@KMHDIFOI@C?3?2Program?5Files?5?$CIx86?$CJ?2Microsof@
CONST	SEGMENT
??_C@_0GH@KMHDIFOI@C?3?2Program?5Files?5?$CIx86?$CJ?2Microsof@ DB 'C:\Pro'
	DB	'gram Files (x86)\Microsoft Visual Studio\2019\Community\VC\To'
	DB	'ols\MSVC\14.29.30133\include\vector', 00H	; `string'
CONST	ENDS
;	COMDAT ??_C@_0BP@KGLJJIBC@front?$CI?$CJ?5called?5on?5empty?5vector@
CONST	SEGMENT
??_C@_0BP@KGLJJIBC@front?$CI?$CJ?5called?5on?5empty?5vector@ DB 'front() '
	DB	'called on empty vector', 00H		; `string'
CONST	ENDS
;	COMDAT ??_C@_0BB@GEDOGCLG@?6random?5result?3?5@
CONST	SEGMENT
??_C@_0BB@GEDOGCLG@?6random?5result?3?5@ DB 0aH, 'random result: ', 00H ; `string'
CONST	ENDS
;	COMDAT ??_C@_04FOMPHDMB@?$CK?1?$CL?9@
CONST	SEGMENT
??_C@_04FOMPHDMB@?$CK?1?$CL?9@ DB '*/+-', 00H		; `string'
CONST	ENDS
;	COMDAT ??_C@_0BI@MLCIECCN@Generating?5random?5tree?6@
CONST	SEGMENT
??_C@_0BI@MLCIECCN@Generating?5random?5tree?6@ DB 'Generating random tree'
	DB	0aH, 00H					; `string'
CONST	ENDS
;	COMDAT ??_C@_0DK@DDLKBKO@?$CD?$CD?$CD?$CD?$CD?$CD?$CD?$CD?$CD?$CD?$CD?$CD?$CD?$CD?$CD?$CD?$CD?$CD?$CD?$CD?$CD?$CD?$CD?$CD?$CD?$CD?$CD?$CD?$CD?$CD?$CD@
CONST	SEGMENT
??_C@_0DK@DDLKBKO@?$CD?$CD?$CD?$CD?$CD?$CD?$CD?$CD?$CD?$CD?$CD?$CD?$CD?$CD?$CD?$CD?$CD?$CD?$CD?$CD?$CD?$CD?$CD?$CD?$CD?$CD?$CD?$CD?$CD?$CD?$CD@ DB '#'
	DB	'#######################################################', 0aH
	DB	00H						; `string'
CONST	ENDS
;	COMDAT ??_C@_0L@JILAODGG@?6Results?3?6@
CONST	SEGMENT
??_C@_0L@JILAODGG@?6Results?3?6@ DB 0aH, 'Results:', 0aH, 00H ; `string'
CONST	ENDS
;	COMDAT ??_C@_0BB@NNEFPPLJ@?6Tree?5to?5string?6@
CONST	SEGMENT
??_C@_0BB@NNEFPPLJ@?6Tree?5to?5string?6@ DB 0aH, 'Tree to string', 0aH, 00H ; `string'
CONST	ENDS
;	COMDAT ??_C@_07BEFECKPA@?6Tree?3?6@
CONST	SEGMENT
??_C@_07BEFECKPA@?6Tree?3?6@ DB 0aH, 'Tree:', 0aH, 00H	; `string'
CONST	ENDS
;	COMDAT ??_C@_0L@OPDGNCOI@?6Brackets?6@
CONST	SEGMENT
??_C@_0L@OPDGNCOI@?6Brackets?6@ DB 0aH, 'Brackets', 0aH, 00H ; `string'
CONST	ENDS
;	COMDAT ??_C@_0N@ELNFFMMN@?6Operators?3?6@
CONST	SEGMENT
??_C@_0N@ELNFFMMN@?6Operators?3?6@ DB 0aH, 'Operators:', 0aH, 00H ; `string'
CONST	ENDS
;	COMDAT ??_C@_0L@GKOFOFEA@?6Numbers?3?6@
CONST	SEGMENT
??_C@_0L@GKOFOFEA@?6Numbers?3?6@ DB 0aH, 'Numbers:', 0aH, 00H ; `string'
CONST	ENDS
;	COMDAT ??_C@_0BJ@GBABLGIM@unexpected?5variable?5name@
CONST	SEGMENT
??_C@_0BJ@GBABLGIM@unexpected?5variable?5name@ DB 'unexpected variable na'
	DB	'me', 00H					; `string'
CONST	ENDS
;	COMDAT ??_C@_0EP@FLJIJNCO@?$CI45?445?5?9?5x?5?$FO?5?92?$CJ?5?$CK?5?94563?445?5?9?5y@
CONST	SEGMENT
??_C@_0EP@FLJIJNCO@?$CI45?445?5?9?5x?5?$FO?5?92?$CJ?5?$CK?5?94563?445?5?9?5y@ DB '('
	DB	'45.45 - x ^ -2) * -4563.45 - y * (4.4586 - (2.7562 * z / 3)) '
	DB	'/ (4585 * 45.45)', 00H			; `string'
CONST	ENDS
;	COMDAT ??_C@_01GLPGHMHM@z@
CONST	SEGMENT
??_C@_01GLPGHMHM@z@ DB 'z', 00H				; `string'
CONST	ENDS
;	COMDAT ??_C@_01EANLCPLP@y@
CONST	SEGMENT
??_C@_01EANLCPLP@y@ DB 'y', 00H				; `string'
CONST	ENDS
;	COMDAT ??_C@_01FJMABOPO@x@
CONST	SEGMENT
??_C@_01FJMABOPO@x@ DB 'x', 00H				; `string'
CONST	ENDS
;	COMDAT ??_C@_0CJ@CHLOGLPG@undefined?5operator?5in?5performOp@
CONST	SEGMENT
??_C@_0CJ@CHLOGLPG@undefined?5operator?5in?5performOp@ DB 'undefined oper'
	DB	'ator in performOperation()', 00H		; `string'
CONST	ENDS
;	COMDAT _CT??_R0PEAX@88
xdata$x	SEGMENT
_CT??_R0PEAX@88 DD 01H
	DD	imagerel ??_R0PEAX@8
	DD	00H
	DD	0ffffffffH
	ORG $+4
	DD	08H
	DD	00H
xdata$x	ENDS
;	COMDAT ??_R0PEAX@8
data$r	SEGMENT
??_R0PEAX@8 DQ	FLAT:??_7type_info@@6B@			; void * `RTTI Type Descriptor'
	DQ	0000000000000000H
	DB	'.PEAX', 00H
data$r	ENDS
;	COMDAT _CT??_R0PEAVexception@std@@@88
xdata$x	SEGMENT
_CT??_R0PEAVexception@std@@@88 DD 01H
	DD	imagerel ??_R0PEAVexception@std@@@8
	DD	00H
	DD	0ffffffffH
	ORG $+4
	DD	08H
	DD	00H
xdata$x	ENDS
;	COMDAT ??_R0PEAVexception@std@@@8
data$r	SEGMENT
??_R0PEAVexception@std@@@8 DQ FLAT:??_7type_info@@6B@	; std::exception * `RTTI Type Descriptor'
	DQ	0000000000000000H
	DB	'.PEAVexception@std@@', 00H
data$r	ENDS
;	COMDAT _CTA2PEAVexception@std@@
xdata$x	SEGMENT
_CTA2PEAVexception@std@@ DD 02H
	DD	imagerel _CT??_R0PEAVexception@std@@@88
	DD	imagerel _CT??_R0PEAX@88
xdata$x	ENDS
;	COMDAT _TI2PEAVexception@std@@
xdata$x	SEGMENT
_TI2PEAVexception@std@@ DD 00H
	DD	00H
	DD	00H
	DD	imagerel _CTA2PEAVexception@std@@
xdata$x	ENDS
;	COMDAT ??_C@_01ODHLEDKK@?$CI@
CONST	SEGMENT
??_C@_01ODHLEDKK@?$CI@ DB '(', 00H			; `string'
CONST	ENDS
;	COMDAT ??_C@_01CLKCMJKC@?5@
CONST	SEGMENT
??_C@_01CLKCMJKC@?5@ DB ' ', 00H			; `string'
CONST	ENDS
;	COMDAT ??_C@_01PKGAHCOL@?$CJ@
CONST	SEGMENT
??_C@_01PKGAHCOL@?$CJ@ DB ')', 00H			; `string'
CONST	ENDS
;	COMDAT ??_C@_02NJPGOMH@?$CFf@
CONST	SEGMENT
??_C@_02NJPGOMH@?$CFf@ DB '%f', 00H			; `string'
CONST	ENDS
;	COMDAT ??_C@_00CNPNBAHC@@
CONST	SEGMENT
??_C@_00CNPNBAHC@@ DB 00H				; `string'
CONST	ENDS
;	COMDAT ?_BUF_SIZE@?$basic_string@DU?$char_traits@D@std@@V?$allocator@D@2@@std@@0_KB
CONST	SEGMENT
?_BUF_SIZE@?$basic_string@DU?$char_traits@D@std@@V?$allocator@D@2@@std@@0_KB DQ 0000000000000010H ; std::basic_string<char,std::char_traits<char>,std::allocator<char> >::_BUF_SIZE
CONST	ENDS
;	COMDAT ??_C@_0BA@JFNIOLAK@string?5too?5long@
CONST	SEGMENT
??_C@_0BA@JFNIOLAK@string?5too?5long@ DB 'string too long', 00H ; `string'
CONST	ENDS
;	COMDAT ??_C@_1CG@JNLFBNGN@?$AA?$CC?$AAi?$AAn?$AAv?$AAa?$AAl?$AAi?$AAd?$AA?5?$AAa?$AAr?$AAg?$AAu?$AAm?$AAe@
CONST	SEGMENT
??_C@_1CG@JNLFBNGN@?$AA?$CC?$AAi?$AAn?$AAv?$AAa?$AAl?$AAi?$AAd?$AA?5?$AAa?$AAr?$AAg?$AAu?$AAm?$AAe@ DB '"'
	DB	00H, 'i', 00H, 'n', 00H, 'v', 00H, 'a', 00H, 'l', 00H, 'i', 00H
	DB	'd', 00H, ' ', 00H, 'a', 00H, 'r', 00H, 'g', 00H, 'u', 00H, 'm'
	DB	00H, 'e', 00H, 'n', 00H, 't', 00H, '"', 00H, 00H, 00H ; `string'
CONST	ENDS
;	COMDAT ??_C@_1EK@NIFDJFDG@?$AAs?$AAt?$AAd?$AA?3?$AA?3?$AA_?$AAA?$AAd?$AAj?$AAu?$AAs?$AAt?$AA_?$AAm?$AAa@
CONST	SEGMENT
??_C@_1EK@NIFDJFDG@?$AAs?$AAt?$AAd?$AA?3?$AA?3?$AA_?$AAA?$AAd?$AAj?$AAu?$AAs?$AAt?$AA_?$AAm?$AAa@ DB 's'
	DB	00H, 't', 00H, 'd', 00H, ':', 00H, ':', 00H, '_', 00H, 'A', 00H
	DB	'd', 00H, 'j', 00H, 'u', 00H, 's', 00H, 't', 00H, '_', 00H, 'm'
	DB	00H, 'a', 00H, 'n', 00H, 'u', 00H, 'a', 00H, 'l', 00H, 'l', 00H
	DB	'y', 00H, '_', 00H, 'v', 00H, 'e', 00H, 'c', 00H, 't', 00H, 'o'
	DB	00H, 'r', 00H, '_', 00H, 'a', 00H, 'l', 00H, 'i', 00H, 'g', 00H
	DB	'n', 00H, 'e', 00H, 'd', 00H, 00H, 00H	; `string'
CONST	ENDS
;	COMDAT ??_C@_1NA@MJBOBEJL@?$AAC?$AA?3?$AA?2?$AAP?$AAr?$AAo?$AAg?$AAr?$AAa?$AAm?$AA?5?$AAF?$AAi?$AAl?$AAe@
CONST	SEGMENT
??_C@_1NA@MJBOBEJL@?$AAC?$AA?3?$AA?2?$AAP?$AAr?$AAo?$AAg?$AAr?$AAa?$AAm?$AA?5?$AAF?$AAi?$AAl?$AAe@ DB 'C'
	DB	00H, ':', 00H, '\', 00H, 'P', 00H, 'r', 00H, 'o', 00H, 'g', 00H
	DB	'r', 00H, 'a', 00H, 'm', 00H, ' ', 00H, 'F', 00H, 'i', 00H, 'l'
	DB	00H, 'e', 00H, 's', 00H, ' ', 00H, '(', 00H, 'x', 00H, '8', 00H
	DB	'6', 00H, ')', 00H, '\', 00H, 'M', 00H, 'i', 00H, 'c', 00H, 'r'
	DB	00H, 'o', 00H, 's', 00H, 'o', 00H, 'f', 00H, 't', 00H, ' ', 00H
	DB	'V', 00H, 'i', 00H, 's', 00H, 'u', 00H, 'a', 00H, 'l', 00H, ' '
	DB	00H, 'S', 00H, 't', 00H, 'u', 00H, 'd', 00H, 'i', 00H, 'o', 00H
	DB	'\', 00H, '2', 00H, '0', 00H, '1', 00H, '9', 00H, '\', 00H, 'C'
	DB	00H, 'o', 00H, 'm', 00H, 'm', 00H, 'u', 00H, 'n', 00H, 'i', 00H
	DB	't', 00H, 'y', 00H, '\', 00H, 'V', 00H, 'C', 00H, '\', 00H, 'T'
	DB	00H, 'o', 00H, 'o', 00H, 'l', 00H, 's', 00H, '\', 00H, 'M', 00H
	DB	'S', 00H, 'V', 00H, 'C', 00H, '\', 00H, '1', 00H, '4', 00H, '.'
	DB	00H, '2', 00H, '9', 00H, '.', 00H, '3', 00H, '0', 00H, '1', 00H
	DB	'3', 00H, '3', 00H, '\', 00H, 'i', 00H, 'n', 00H, 'c', 00H, 'l'
	DB	00H, 'u', 00H, 'd', 00H, 'e', 00H, '\', 00H, 'x', 00H, 'm', 00H
	DB	'e', 00H, 'm', 00H, 'o', 00H, 'r', 00H, 'y', 00H, 00H, 00H ; `string'
CONST	ENDS
;	COMDAT ??_C@_0GI@MNEMJBML@C?3?2Program?5Files?5?$CIx86?$CJ?2Microsof@
CONST	SEGMENT
??_C@_0GI@MNEMJBML@C?3?2Program?5Files?5?$CIx86?$CJ?2Microsof@ DB 'C:\Pro'
	DB	'gram Files (x86)\Microsoft Visual Studio\2019\Community\VC\To'
	DB	'ols\MSVC\14.29.30133\include\xmemory', 00H	; `string'
CONST	ENDS
;	COMDAT ??_C@_02DKCKIIND@?$CFs@
CONST	SEGMENT
??_C@_02DKCKIIND@?$CFs@ DB '%s', 00H			; `string'
CONST	ENDS
;	COMDAT ??_C@_0BB@FCMFBGOM@invalid?5argument@
CONST	SEGMENT
??_C@_0BB@FCMFBGOM@invalid?5argument@ DB 'invalid argument', 00H ; `string'
CONST	ENDS
;	COMDAT ?__LINE__Var@?0??_Adjust_manually_vector_aligned@std@@YAXAEAPEAXAEA_K@Z@4JA
_DATA	SEGMENT
?__LINE__Var@?0??_Adjust_manually_vector_aligned@std@@YAXAEAPEAXAEA_K@Z@4JA DD 099H ; `std::_Adjust_manually_vector_aligned'::`1'::__LINE__Var
_DATA	ENDS
;	COMDAT _CT??_R0?AVexception@std@@@8??0exception@std@@QEAA@AEBV01@@Z24
xdata$x	SEGMENT
_CT??_R0?AVexception@std@@@8??0exception@std@@QEAA@AEBV01@@Z24 DD 00H
	DD	imagerel ??_R0?AVexception@std@@@8
	DD	00H
	DD	0ffffffffH
	ORG $+4
	DD	018H
	DD	imagerel ??0exception@std@@QEAA@AEBV01@@Z
xdata$x	ENDS
;	COMDAT ??_R0?AVexception@std@@@8
data$r	SEGMENT
??_R0?AVexception@std@@@8 DQ FLAT:??_7type_info@@6B@	; std::exception `RTTI Type Descriptor'
	DQ	0000000000000000H
	DB	'.?AVexception@std@@', 00H
data$r	ENDS
;	COMDAT _CT??_R0?AVbad_alloc@std@@@8??0bad_alloc@std@@QEAA@AEBV01@@Z24
xdata$x	SEGMENT
_CT??_R0?AVbad_alloc@std@@@8??0bad_alloc@std@@QEAA@AEBV01@@Z24 DD 010H
	DD	imagerel ??_R0?AVbad_alloc@std@@@8
	DD	00H
	DD	0ffffffffH
	ORG $+4
	DD	018H
	DD	imagerel ??0bad_alloc@std@@QEAA@AEBV01@@Z
xdata$x	ENDS
;	COMDAT ??_R0?AVbad_alloc@std@@@8
data$r	SEGMENT
??_R0?AVbad_alloc@std@@@8 DQ FLAT:??_7type_info@@6B@	; std::bad_alloc `RTTI Type Descriptor'
	DQ	0000000000000000H
	DB	'.?AVbad_alloc@std@@', 00H
data$r	ENDS
;	COMDAT _CT??_R0?AVbad_array_new_length@std@@@8??0bad_array_new_length@std@@QEAA@AEBV01@@Z24
xdata$x	SEGMENT
_CT??_R0?AVbad_array_new_length@std@@@8??0bad_array_new_length@std@@QEAA@AEBV01@@Z24 DD 00H
	DD	imagerel ??_R0?AVbad_array_new_length@std@@@8
	DD	00H
	DD	0ffffffffH
	ORG $+4
	DD	018H
	DD	imagerel ??0bad_array_new_length@std@@QEAA@AEBV01@@Z
xdata$x	ENDS
;	COMDAT ??_R0?AVbad_array_new_length@std@@@8
data$r	SEGMENT
??_R0?AVbad_array_new_length@std@@@8 DQ FLAT:??_7type_info@@6B@ ; std::bad_array_new_length `RTTI Type Descriptor'
	DQ	0000000000000000H
	DB	'.?AVbad_array_new_length@std@@', 00H
data$r	ENDS
;	COMDAT _CTA3?AVbad_array_new_length@std@@
xdata$x	SEGMENT
_CTA3?AVbad_array_new_length@std@@ DD 03H
	DD	imagerel _CT??_R0?AVbad_array_new_length@std@@@8??0bad_array_new_length@std@@QEAA@AEBV01@@Z24
	DD	imagerel _CT??_R0?AVbad_alloc@std@@@8??0bad_alloc@std@@QEAA@AEBV01@@Z24
	DD	imagerel _CT??_R0?AVexception@std@@@8??0exception@std@@QEAA@AEBV01@@Z24
xdata$x	ENDS
;	COMDAT _TI3?AVbad_array_new_length@std@@
xdata$x	SEGMENT
_TI3?AVbad_array_new_length@std@@ DD 00H
	DD	imagerel ??1bad_array_new_length@std@@UEAA@XZ
	DD	00H
	DD	imagerel _CTA3?AVbad_array_new_length@std@@
xdata$x	ENDS
;	COMDAT ??_C@_0BF@KINCDENJ@bad?5array?5new?5length@
CONST	SEGMENT
??_C@_0BF@KINCDENJ@bad?5array?5new?5length@ DB 'bad array new length', 00H ; `string'
CONST	ENDS
;	COMDAT ??_7bad_array_new_length@std@@6B@
CONST	SEGMENT
??_7bad_array_new_length@std@@6B@ DQ FLAT:??_R4bad_array_new_length@std@@6B@ ; std::bad_array_new_length::`vftable'
	DQ	FLAT:??_Ebad_array_new_length@std@@UEAAPEAXI@Z
	DQ	FLAT:?what@exception@std@@UEBAPEBDXZ
CONST	ENDS
;	COMDAT ??_7bad_alloc@std@@6B@
CONST	SEGMENT
??_7bad_alloc@std@@6B@ DQ FLAT:??_R4bad_alloc@std@@6B@	; std::bad_alloc::`vftable'
	DQ	FLAT:??_Ebad_alloc@std@@UEAAPEAXI@Z
	DQ	FLAT:?what@exception@std@@UEBAPEBDXZ
CONST	ENDS
;	COMDAT ??_C@_0BC@EOODALEL@Unknown?5exception@
CONST	SEGMENT
??_C@_0BC@EOODALEL@Unknown?5exception@ DB 'Unknown exception', 00H ; `string'
CONST	ENDS
;	COMDAT ??_7exception@std@@6B@
CONST	SEGMENT
??_7exception@std@@6B@ DQ FLAT:??_R4exception@std@@6B@	; std::exception::`vftable'
	DQ	FLAT:??_Eexception@std@@UEAAPEAXI@Z
	DQ	FLAT:?what@exception@std@@UEBAPEBDXZ
CONST	ENDS
;	COMDAT xdata
xdata	SEGMENT
$unwind$??$_Voidify_iter@PEAUop@@@std@@YAPEAXPEAUop@@@Z DD 025051301H
	DD	010e2313H
	DD	07007001dH
	DD	05006H
xdata	ENDS
;	COMDAT xdata
xdata	SEGMENT
$unwind$??$construct@PEAVnode@@PEAV1@@?$_Default_allocator_traits@V?$allocator@PEAVnode@@@std@@@std@@SAXAEAV?$allocator@PEAVnode@@@1@QEAPEAVnode@@$$QEAPEAV3@@Z DD 025051d01H
	DD	0118231dH
	DD	070110021H
	DD	05010H
xdata	ENDS
;	COMDAT xdata
xdata	SEGMENT
$unwind$??$forward@PEAVnode@@@std@@YA$$QEAPEAVnode@@AEAPEAV1@@Z DD 025051301H
	DD	010e2313H
	DD	07007001dH
	DD	05006H
xdata	ENDS
;	COMDAT xdata
xdata	SEGMENT
$unwind$??$_To_address@PEAPEAVnode@@@std@@YA?A_PAEBQEAPEAVnode@@@Z DD 025051301H
	DD	010e2313H
	DD	07007001dH
	DD	05006H
xdata	ENDS
;	COMDAT xdata
xdata	SEGMENT
$unwind$??$construct@Uop@@AEAU1@@?$_Default_allocator_traits@V?$allocator@Uop@@@std@@@std@@SAXAEAV?$allocator@Uop@@@1@QEAUop@@AEAU3@@Z DD 025051d01H
	DD	0118231dH
	DD	070110021H
	DD	05010H
xdata	ENDS
;	COMDAT xdata
xdata	SEGMENT
$unwind$??$forward@AEAUop@@@std@@YAAEAUop@@AEAU1@@Z DD 025051301H
	DD	010e2313H
	DD	07007001dH
	DD	05006H
xdata	ENDS
;	COMDAT xdata
xdata	SEGMENT
$unwind$??$forward@AEAV?$allocator@D@std@@@std@@YAAEAV?$allocator@D@0@AEAV10@@Z DD 025051301H
	DD	010e2313H
	DD	07007001dH
	DD	05006H
xdata	ENDS
;	COMDAT xdata
xdata	SEGMENT
$unwind$??$_Emplace_back@PEAVnode@@@?$_Uninitialized_backout_al@V?$allocator@PEAVnode@@@std@@@std@@QEAAX$$QEAPEAVnode@@@Z DD 025051801H
	DD	01132318H
	DD	0700c001fH
	DD	0500bH
xdata	ENDS
;	COMDAT xdata
xdata	SEGMENT
$unwind$?__autoclassinit2@?$_Uninitialized_backout_al@V?$allocator@PEAVnode@@@std@@@std@@QEAAX_K@Z DD 05051601H
	DD	01130316H
	DD	0700c0019H
	DD	0500bH
xdata	ENDS
;	COMDAT xdata
xdata	SEGMENT
$unwind$?_Release@?$_Uninitialized_backout_al@V?$allocator@PEAVnode@@@std@@@std@@QEAAPEAPEAVnode@@XZ DD 025051301H
	DD	010e2313H
	DD	07007001dH
	DD	05006H
xdata	ENDS
;	COMDAT xdata
xdata	SEGMENT
$unwind$??1?$_Uninitialized_backout_al@V?$allocator@PEAVnode@@@std@@@std@@QEAA@XZ DD 025051301H
	DD	010e2313H
	DD	07007001dH
	DD	05006H
xdata	ENDS
;	COMDAT xdata
xdata	SEGMENT
$unwind$??0?$_Uninitialized_backout_al@V?$allocator@PEAVnode@@@std@@@std@@QEAA@PEAPEAVnode@@AEAV?$allocator@PEAVnode@@@1@@Z DD 025051d01H
	DD	0118231dH
	DD	07011001dH
	DD	05010H
xdata	ENDS
;	COMDAT xdata
xdata	SEGMENT
$unwind$??$_Copy_memmove@PEAPEAVnode@@PEAPEAV1@@std@@YAPEAPEAVnode@@PEAPEAV1@00@Z DD 025051d01H
	DD	0118231dH
	DD	070110039H
	DD	05010H
xdata	ENDS
;	COMDAT xdata
xdata	SEGMENT
$unwind$??$move@AEAPEAVnode@@@std@@YA$$QEAPEAVnode@@AEAPEAV1@@Z DD 025051301H
	DD	010e2313H
	DD	07007001dH
	DD	05006H
xdata	ENDS
;	COMDAT xdata
xdata	SEGMENT
$unwind$??$_Get_unwrapped@AEBQEAPEAVnode@@@std@@YA?A_TAEBQEAPEAVnode@@@Z DD 025051301H
	DD	010e2313H
	DD	07007001dH
	DD	05006H
xdata	ENDS
;	COMDAT xdata
xdata	SEGMENT
$unwind$??$_Emplace_back@AEAUop@@@?$_Uninitialized_backout_al@V?$allocator@Uop@@@std@@@std@@QEAAXAEAUop@@@Z DD 025051801H
	DD	01132318H
	DD	0700c001fH
	DD	0500bH
xdata	ENDS
;	COMDAT xdata
xdata	SEGMENT
$unwind$?__autoclassinit2@?$_Uninitialized_backout_al@V?$allocator@Uop@@@std@@@std@@QEAAX_K@Z DD 05051601H
	DD	01130316H
	DD	0700c0019H
	DD	0500bH
xdata	ENDS
;	COMDAT xdata
xdata	SEGMENT
$unwind$?_Release@?$_Uninitialized_backout_al@V?$allocator@Uop@@@std@@@std@@QEAAPEAUop@@XZ DD 025051301H
	DD	010e2313H
	DD	07007001dH
	DD	05006H
xdata	ENDS
;	COMDAT xdata
xdata	SEGMENT
$unwind$??1?$_Uninitialized_backout_al@V?$allocator@Uop@@@std@@@std@@QEAA@XZ DD 025051301H
	DD	010e2313H
	DD	07007001dH
	DD	05006H
xdata	ENDS
;	COMDAT xdata
xdata	SEGMENT
$unwind$??0?$_Uninitialized_backout_al@V?$allocator@Uop@@@std@@@std@@QEAA@PEAUop@@AEAV?$allocator@Uop@@@1@@Z DD 025051d01H
	DD	0118231dH
	DD	07011001dH
	DD	05010H
xdata	ENDS
;	COMDAT xdata
xdata	SEGMENT
$unwind$??$_Get_unwrapped@AEBQEAUop@@@std@@YA?A_TAEBQEAUop@@@Z DD 025051301H
	DD	010e2313H
	DD	07007001dH
	DD	05006H
xdata	ENDS
;	COMDAT xdata
xdata	SEGMENT
$unwind$?deallocate@?$_Default_allocator_traits@V?$allocator@U_Container_proxy@std@@@std@@@std@@SAXAEAV?$allocator@U_Container_proxy@std@@@2@QEAU_Container_proxy@2@_K@Z DD 025051d01H
	DD	0118231dH
	DD	07011001dH
	DD	05010H
xdata	ENDS
;	COMDAT xdata
xdata	SEGMENT
$unwind$??$_Allocators_equal@V?$allocator@D@std@@@std@@YA_NAEBV?$allocator@D@0@0@Z DD 025051801H
	DD	01132318H
	DD	0700c001dH
	DD	0500bH
xdata	ENDS
;	COMDAT xdata
xdata	SEGMENT
$unwind$??$?0AEAV?$allocator@D@std@@$$V@?$_Compressed_pair@V?$allocator@D@std@@V?$_String_val@U?$_Simple_types@D@std@@@2@$00@std@@QEAA@U_One_then_variadic_args_t@1@AEAV?$allocator@D@1@@Z DD 025051c01H
	DD	0117231cH
	DD	07010001dH
	DD	0500fH
xdata	ENDS
;	COMDAT xdata
xdata	SEGMENT
$unwind$??$_Get_size_of_n@$07@std@@YA_K_K@Z DD 025051301H
	DD	010e2313H
	DD	070070025H
	DD	05006H
xdata	ENDS
;	COMDAT voltbl
voltbl	SEGMENT
_volmd	DB	00H
	DB	05H
voltbl	ENDS
;	COMDAT voltbl
voltbl	SEGMENT
_volmd	DW	045H
	DW	013dH
voltbl	ENDS
;	COMDAT xdata
xdata	SEGMENT
$unwind$?dtor$0@?0???$_Uninitialized_move@PEAPEAVnode@@V?$allocator@PEAVnode@@@std@@@std@@YAPEAPEAVnode@@QEAPEAV1@0PEAPEAV1@AEAV?$allocator@PEAVnode@@@0@@Z@4HA DD 031001H
	DD	0700c4210H
	DD	0500bH
xdata	ENDS
;	COMDAT xdata
xdata	SEGMENT
$ip2state$??$_Uninitialized_move@PEAPEAVnode@@V?$allocator@PEAVnode@@@std@@@std@@YAPEAPEAVnode@@QEAPEAV1@0PEAPEAV1@AEAV?$allocator@PEAVnode@@@0@@Z DB 02H
	DB	00H
	DB	00H
xdata	ENDS
;	COMDAT xdata
xdata	SEGMENT
$stateUnwindMap$??$_Uninitialized_move@PEAPEAVnode@@V?$allocator@PEAVnode@@@std@@@std@@YAPEAPEAVnode@@QEAPEAV1@0PEAPEAV1@AEAV?$allocator@PEAVnode@@@0@@Z DB 02H
	DB	0eH
	DD	imagerel ?dtor$0@?0???$_Uninitialized_move@PEAPEAVnode@@V?$allocator@PEAVnode@@@std@@@std@@YAPEAPEAVnode@@QEAPEAV1@0PEAPEAV1@AEAV?$allocator@PEAVnode@@@0@@Z@4HA
xdata	ENDS
;	COMDAT xdata
xdata	SEGMENT
$cppxdata$??$_Uninitialized_move@PEAPEAVnode@@V?$allocator@PEAVnode@@@std@@@std@@YAPEAPEAVnode@@QEAPEAV1@0PEAPEAV1@AEAV?$allocator@PEAVnode@@@0@@Z DB 028H
	DD	imagerel $stateUnwindMap$??$_Uninitialized_move@PEAPEAVnode@@V?$allocator@PEAVnode@@@std@@@std@@YAPEAPEAVnode@@QEAPEAV1@0PEAPEAV1@AEAV?$allocator@PEAVnode@@@0@@Z
	DD	imagerel $ip2state$??$_Uninitialized_move@PEAPEAVnode@@V?$allocator@PEAVnode@@@std@@@std@@YAPEAPEAVnode@@QEAPEAV1@0PEAPEAV1@AEAV?$allocator@PEAVnode@@@0@@Z
xdata	ENDS
;	COMDAT xdata
xdata	SEGMENT
$unwind$??$_Uninitialized_move@PEAPEAVnode@@V?$allocator@PEAVnode@@@std@@@std@@YAPEAPEAVnode@@QEAPEAV1@0PEAPEAV1@AEAV?$allocator@PEAVnode@@@0@@Z DD 025054c19H
	DD	011d2322H
	DD	07016002fH
	DD	05015H
	DD	imagerel __GSHandlerCheck_EH4
	DD	imagerel $cppxdata$??$_Uninitialized_move@PEAPEAVnode@@V?$allocator@PEAVnode@@@std@@@std@@YAPEAPEAVnode@@QEAPEAV1@0PEAPEAV1@AEAV?$allocator@PEAVnode@@@0@@Z
	DD	016aH
xdata	ENDS
;	COMDAT CONST
CONST	SEGMENT
??$_Uninitialized_move@PEAPEAVnode@@V?$allocator@PEAVnode@@@std@@@std@@YAPEAPEAVnode@@QEAPEAV1@0PEAPEAV1@AEAV?$allocator@PEAVnode@@@0@@Z$rtcName$0 DB 05fH ; std::_Uninitialized_move<node * *,std::allocator<node *> >
	DB	042H
	DB	061H
	DB	063H
	DB	06bH
	DB	06fH
	DB	075H
	DB	074H
	DB	00H
	ORG $+7
??$_Uninitialized_move@PEAPEAVnode@@V?$allocator@PEAVnode@@@std@@@std@@YAPEAPEAVnode@@QEAPEAV1@0PEAPEAV1@AEAV?$allocator@PEAVnode@@@0@@Z$rtcVarDesc DD 068H ; std::_Uninitialized_move<node * *,std::allocator<node *> >
	DD	018H
	DQ	FLAT:??$_Uninitialized_move@PEAPEAVnode@@V?$allocator@PEAVnode@@@std@@@std@@YAPEAPEAVnode@@QEAPEAV1@0PEAPEAV1@AEAV?$allocator@PEAVnode@@@0@@Z$rtcName$0
	ORG $+48
??$_Uninitialized_move@PEAPEAVnode@@V?$allocator@PEAVnode@@@std@@@std@@YAPEAPEAVnode@@QEAPEAV1@0PEAPEAV1@AEAV?$allocator@PEAVnode@@@0@@Z$rtcFrameData DD 01H ; std::_Uninitialized_move<node * *,std::allocator<node *> >
	DD	00H
	DQ	FLAT:??$_Uninitialized_move@PEAPEAVnode@@V?$allocator@PEAVnode@@@std@@@std@@YAPEAPEAVnode@@QEAPEAV1@0PEAPEAV1@AEAV?$allocator@PEAVnode@@@0@@Z$rtcVarDesc
CONST	ENDS
;	COMDAT xdata
xdata	SEGMENT
$unwind$??$destroy@V?$basic_string@DU?$char_traits@D@std@@V?$allocator@D@2@@std@@@?$_Default_allocator_traits@V?$allocator@V?$basic_string@DU?$char_traits@D@std@@V?$allocator@D@2@@std@@@std@@@std@@SAXAEAV?$allocator@V?$basic_string@DU?$char_traits@D@std@@V?$allocator@D@2@@std@@@1@QEAV?$basic_string@DU?$char_traits@D@std@@V?$allocator@D@2@@1@@Z DD 025051801H
	DD	01132318H
	DD	0700c001dH
	DD	0500bH
xdata	ENDS
;	COMDAT xdata
xdata	SEGMENT
$unwind$??$_Unfancy@V?$basic_string@DU?$char_traits@D@std@@V?$allocator@D@2@@std@@@std@@YAPEAV?$basic_string@DU?$char_traits@D@std@@V?$allocator@D@2@@0@PEAV10@@Z DD 025051301H
	DD	010e2313H
	DD	07007001dH
	DD	05006H
xdata	ENDS
;	COMDAT xdata
xdata	SEGMENT
$unwind$??$destroy@Uop@@@?$_Default_allocator_traits@V?$allocator@Uop@@@std@@@std@@SAXAEAV?$allocator@Uop@@@1@QEAUop@@@Z DD 025051801H
	DD	01132318H
	DD	0700c001dH
	DD	0500bH
xdata	ENDS
;	COMDAT xdata
xdata	SEGMENT
$unwind$??$_Unfancy@Uop@@@std@@YAPEAUop@@PEAU1@@Z DD 025051301H
	DD	010e2313H
	DD	07007001dH
	DD	05006H
xdata	ENDS
;	COMDAT xdata
xdata	SEGMENT
$unwind$??$_Allocate_manually_vector_aligned@U_Default_allocate_traits@std@@@std@@YAPEAX_K@Z DD 035051301H
	DD	010e3313H
	DD	07007002bH
	DD	05006H
xdata	ENDS
;	COMDAT xdata
xdata	SEGMENT
$unwind$??$forward@AEBV?$allocator@D@std@@@std@@YAAEBV?$allocator@D@0@AEBV10@@Z DD 025051301H
	DD	010e2313H
	DD	07007001dH
	DD	05006H
xdata	ENDS
;	COMDAT xdata
xdata	SEGMENT
$unwind$??$forward@AEAPEAD@std@@YAAEAPEADAEAPEAD@Z DD 025051301H
	DD	010e2313H
	DD	07007001dH
	DD	05006H
xdata	ENDS
;	COMDAT xdata
xdata	SEGMENT
$unwind$??$forward@AEBQEAD@std@@YAAEBQEADAEBQEAD@Z DD 025051301H
	DD	010e2313H
	DD	07007001dH
	DD	05006H
xdata	ENDS
;	COMDAT xdata
xdata	SEGMENT
$unwind$??$_Voidify_iter@PEAPEAD@std@@YAPEAXPEAPEAD@Z DD 025051301H
	DD	010e2313H
	DD	07007001dH
	DD	05006H
xdata	ENDS
;	COMDAT xdata
xdata	SEGMENT
$unwind$??$addressof@PEAD@std@@YAPEAPEADAEAPEAD@Z DD 025051301H
	DD	010e2313H
	DD	07007001dH
	DD	05006H
xdata	ENDS
;	COMDAT xdata
xdata	SEGMENT
$unwind$??$forward@V?$allocator@D@std@@@std@@YA$$QEAV?$allocator@D@0@AEAV10@@Z DD 025051301H
	DD	010e2313H
	DD	07007001dH
	DD	05006H
xdata	ENDS
;	COMDAT voltbl
voltbl	SEGMENT
_volmd	DB	00H
	DB	05H
voltbl	ENDS
;	COMDAT voltbl
voltbl	SEGMENT
_volmd	DB	045H
	DB	0fbH
voltbl	ENDS
;	COMDAT xdata
xdata	SEGMENT
$unwind$?dtor$0@?0???$_Uninitialized_copy@PEAUop@@V?$allocator@Uop@@@std@@@std@@YAPEAUop@@QEAU1@0PEAU1@AEAV?$allocator@Uop@@@0@@Z@4HA DD 031001H
	DD	0700c4210H
	DD	0500bH
xdata	ENDS
;	COMDAT xdata
xdata	SEGMENT
$ip2state$??$_Uninitialized_copy@PEAUop@@V?$allocator@Uop@@@std@@@std@@YAPEAUop@@QEAU1@0PEAU1@AEAV?$allocator@Uop@@@0@@Z DB 06H
	DB	00H
	DB	00H
	DB	'y', 02H
	DB	02H
	DB	'n'
	DB	00H
xdata	ENDS
;	COMDAT xdata
xdata	SEGMENT
$stateUnwindMap$??$_Uninitialized_copy@PEAUop@@V?$allocator@Uop@@@std@@@std@@YAPEAUop@@QEAU1@0PEAU1@AEAV?$allocator@Uop@@@0@@Z DB 02H
	DB	0eH
	DD	imagerel ?dtor$0@?0???$_Uninitialized_copy@PEAUop@@V?$allocator@Uop@@@std@@@std@@YAPEAUop@@QEAU1@0PEAU1@AEAV?$allocator@Uop@@@0@@Z@4HA
xdata	ENDS
;	COMDAT xdata
xdata	SEGMENT
$cppxdata$??$_Uninitialized_copy@PEAUop@@V?$allocator@Uop@@@std@@@std@@YAPEAUop@@QEAU1@0PEAU1@AEAV?$allocator@Uop@@@0@@Z DB 028H
	DD	imagerel $stateUnwindMap$??$_Uninitialized_copy@PEAUop@@V?$allocator@Uop@@@std@@@std@@YAPEAUop@@QEAU1@0PEAU1@AEAV?$allocator@Uop@@@0@@Z
	DD	imagerel $ip2state$??$_Uninitialized_copy@PEAUop@@V?$allocator@Uop@@@std@@@std@@YAPEAUop@@QEAU1@0PEAU1@AEAV?$allocator@Uop@@@0@@Z
xdata	ENDS
;	COMDAT xdata
xdata	SEGMENT
$unwind$??$_Uninitialized_copy@PEAUop@@V?$allocator@Uop@@@std@@@std@@YAPEAUop@@QEAU1@0PEAU1@AEAV?$allocator@Uop@@@0@@Z DD 025054c19H
	DD	011d2322H
	DD	07016002fH
	DD	05015H
	DD	imagerel __GSHandlerCheck_EH4
	DD	imagerel $cppxdata$??$_Uninitialized_copy@PEAUop@@V?$allocator@Uop@@@std@@@std@@YAPEAUop@@QEAU1@0PEAU1@AEAV?$allocator@Uop@@@0@@Z
	DD	016aH
xdata	ENDS
;	COMDAT CONST
CONST	SEGMENT
??$_Uninitialized_copy@PEAUop@@V?$allocator@Uop@@@std@@@std@@YAPEAUop@@QEAU1@0PEAU1@AEAV?$allocator@Uop@@@0@@Z$rtcName$0 DB 05fH ; std::_Uninitialized_copy<op *,std::allocator<op> >
	DB	042H
	DB	061H
	DB	063H
	DB	06bH
	DB	06fH
	DB	075H
	DB	074H
	DB	00H
	ORG $+7
??$_Uninitialized_copy@PEAUop@@V?$allocator@Uop@@@std@@@std@@YAPEAUop@@QEAU1@0PEAU1@AEAV?$allocator@Uop@@@0@@Z$rtcVarDesc DD 068H ; std::_Uninitialized_copy<op *,std::allocator<op> >
	DD	018H
	DQ	FLAT:??$_Uninitialized_copy@PEAUop@@V?$allocator@Uop@@@std@@@std@@YAPEAUop@@QEAU1@0PEAU1@AEAV?$allocator@Uop@@@0@@Z$rtcName$0
	ORG $+48
??$_Uninitialized_copy@PEAUop@@V?$allocator@Uop@@@std@@@std@@YAPEAUop@@QEAU1@0PEAU1@AEAV?$allocator@Uop@@@0@@Z$rtcFrameData DD 01H ; std::_Uninitialized_copy<op *,std::allocator<op> >
	DD	00H
	DQ	FLAT:??$_Uninitialized_copy@PEAUop@@V?$allocator@Uop@@@std@@@std@@YAPEAUop@@QEAU1@0PEAU1@AEAV?$allocator@Uop@@@0@@Z$rtcVarDesc
CONST	ENDS
;	COMDAT xdata
xdata	SEGMENT
$unwind$??$forward@V?$allocator@Uop@@@std@@@std@@YA$$QEAV?$allocator@Uop@@@0@AEAV10@@Z DD 025051301H
	DD	010e2313H
	DD	07007001dH
	DD	05006H
xdata	ENDS
;	COMDAT xdata
xdata	SEGMENT
$ip2state$??$_Deallocate_plain@V?$allocator@U_Container_proxy@std@@@std@@@std@@YAXAEAV?$allocator@U_Container_proxy@std@@@0@QEAU_Container_proxy@0@@Z DB 02H
	DB	00H
	DB	00H
xdata	ENDS
;	COMDAT xdata
xdata	SEGMENT
$cppxdata$??$_Deallocate_plain@V?$allocator@U_Container_proxy@std@@@std@@@std@@YAXAEAV?$allocator@U_Container_proxy@std@@@0@QEAU_Container_proxy@0@@Z DB 060H
	DD	imagerel $ip2state$??$_Deallocate_plain@V?$allocator@U_Container_proxy@std@@@std@@@std@@YAXAEAV?$allocator@U_Container_proxy@std@@@0@QEAU_Container_proxy@0@@Z
xdata	ENDS
;	COMDAT xdata
xdata	SEGMENT
$unwind$??$_Deallocate_plain@V?$allocator@U_Container_proxy@std@@@std@@@std@@YAXAEAV?$allocator@U_Container_proxy@std@@@0@QEAU_Container_proxy@0@@Z DD 025051819H
	DD	01132318H
	DD	0700c001dH
	DD	0500bH
	DD	imagerel __CxxFrameHandler4
	DD	imagerel $cppxdata$??$_Deallocate_plain@V?$allocator@U_Container_proxy@std@@@std@@@std@@YAXAEAV?$allocator@U_Container_proxy@std@@@0@QEAU_Container_proxy@0@@Z
xdata	ENDS
;	COMDAT xdata
xdata	SEGMENT
$unwind$??$_Voidify_iter@PEAPEAVnode@@@std@@YAPEAXPEAPEAVnode@@@Z DD 025051301H
	DD	010e2313H
	DD	07007001dH
	DD	05006H
xdata	ENDS
;	COMDAT voltbl
voltbl	SEGMENT
_volmd	DB	00H
	DB	05H
voltbl	ENDS
;	COMDAT voltbl
voltbl	SEGMENT
_volmd	DB	00H
	DB	05H
voltbl	ENDS
;	COMDAT voltbl
voltbl	SEGMENT
_volmd	DW	040H
	DW	03deH
voltbl	ENDS
;	COMDAT xdata
xdata	SEGMENT
$unwind$?catch$1@?0???$_Insert_string@DU?$char_traits@D@std@@_K@std@@YAAEAV?$basic_ostream@DU?$char_traits@D@std@@@0@AEAV10@QEBD_K@Z@4HA DD 031001H
	DD	0700c4210H
	DD	0500bH
xdata	ENDS
;	COMDAT xdata
xdata	SEGMENT
$unwind$?dtor$0@?0???$_Insert_string@DU?$char_traits@D@std@@_K@std@@YAAEAV?$basic_ostream@DU?$char_traits@D@std@@@0@AEAV10@QEBD_K@Z@4HA DD 031001H
	DD	0700c4210H
	DD	0500bH
xdata	ENDS
;	COMDAT xdata
xdata	SEGMENT
$ip2state$??$_Insert_string@DU?$char_traits@D@std@@_K@std@@YAAEAV?$basic_ostream@DU?$char_traits@D@std@@@0@AEAV10@QEBD_K@Z DB 0aH
	DB	00H
	DB	00H
	DB	0e9H, 03H
	DB	02H
	DB	'<'
	DB	04H
	DB	099H, 09H
	DB	02H
	DB	't'
	DB	00H
xdata	ENDS
;	COMDAT xdata
xdata	SEGMENT
$handlerMap$??$_Insert_string@DU?$char_traits@D@std@@_K@std@@YAAEAV?$basic_ostream@DU?$char_traits@D@std@@@0@AEAV10@QEBD_K@Z DB 02H
	DB	01H
	DB	080H
	DD	imagerel ?catch$1@?0???$_Insert_string@DU?$char_traits@D@std@@_K@std@@YAAEAV?$basic_ostream@DU?$char_traits@D@std@@@0@AEAV10@QEBD_K@Z@4HA
xdata	ENDS
;	COMDAT xdata
xdata	SEGMENT
$tryMap$??$_Insert_string@DU?$char_traits@D@std@@_K@std@@YAAEAV?$basic_ostream@DU?$char_traits@D@std@@@0@AEAV10@QEBD_K@Z DB 02H
	DB	02H
	DB	02H
	DB	04H
	DD	imagerel $handlerMap$??$_Insert_string@DU?$char_traits@D@std@@_K@std@@YAAEAV?$basic_ostream@DU?$char_traits@D@std@@@0@AEAV10@QEBD_K@Z
xdata	ENDS
;	COMDAT xdata
xdata	SEGMENT
$stateUnwindMap$??$_Insert_string@DU?$char_traits@D@std@@_K@std@@YAAEAV?$basic_ostream@DU?$char_traits@D@std@@@0@AEAV10@QEBD_K@Z DB 06H
	DB	0eH
	DD	imagerel ?dtor$0@?0???$_Insert_string@DU?$char_traits@D@std@@_K@std@@YAAEAV?$basic_ostream@DU?$char_traits@D@std@@@0@AEAV10@QEBD_K@Z@4HA
	DB	028H
	DB	030H
xdata	ENDS
;	COMDAT xdata
xdata	SEGMENT
$cppxdata$??$_Insert_string@DU?$char_traits@D@std@@_K@std@@YAAEAV?$basic_ostream@DU?$char_traits@D@std@@@0@AEAV10@QEBD_K@Z DB 038H
	DD	imagerel $stateUnwindMap$??$_Insert_string@DU?$char_traits@D@std@@_K@std@@YAAEAV?$basic_ostream@DU?$char_traits@D@std@@@0@AEAV10@QEBD_K@Z
	DD	imagerel $tryMap$??$_Insert_string@DU?$char_traits@D@std@@_K@std@@YAAEAV?$basic_ostream@DU?$char_traits@D@std@@@0@AEAV10@QEBD_K@Z
	DD	imagerel $ip2state$??$_Insert_string@DU?$char_traits@D@std@@_K@std@@YAAEAV?$basic_ostream@DU?$char_traits@D@std@@@0@AEAV10@QEBD_K@Z
xdata	ENDS
;	COMDAT xdata
xdata	SEGMENT
$unwind$??$_Insert_string@DU?$char_traits@D@std@@_K@std@@YAAEAV?$basic_ostream@DU?$char_traits@D@std@@@0@AEAV10@QEBD_K@Z DD 025054719H
	DD	0118231dH
	DD	070110041H
	DD	05010H
	DD	imagerel __GSHandlerCheck_EH4
	DD	imagerel $cppxdata$??$_Insert_string@DU?$char_traits@D@std@@_K@std@@YAAEAV?$basic_ostream@DU?$char_traits@D@std@@@0@AEAV10@QEBD_K@Z
	DD	01fbH
xdata	ENDS
;	COMDAT CONST
CONST	SEGMENT
??$_Insert_string@DU?$char_traits@D@std@@_K@std@@YAAEAV?$basic_ostream@DU?$char_traits@D@std@@@0@AEAV10@QEBD_K@Z$rtcName$0 DB 05fH ; std::_Insert_string<char,std::char_traits<char>,unsigned __int64>
	DB	04fH
	DB	06bH
	DB	00H
	ORG $+12
??$_Insert_string@DU?$char_traits@D@std@@_K@std@@YAAEAV?$basic_ostream@DU?$char_traits@D@std@@@0@AEAV10@QEBD_K@Z$rtcVarDesc DD 068H ; std::_Insert_string<char,std::char_traits<char>,unsigned __int64>
	DD	010H
	DQ	FLAT:??$_Insert_string@DU?$char_traits@D@std@@_K@std@@YAAEAV?$basic_ostream@DU?$char_traits@D@std@@@0@AEAV10@QEBD_K@Z$rtcName$0
	ORG $+48
??$_Insert_string@DU?$char_traits@D@std@@_K@std@@YAAEAV?$basic_ostream@DU?$char_traits@D@std@@@0@AEAV10@QEBD_K@Z$rtcFrameData DD 01H ; std::_Insert_string<char,std::char_traits<char>,unsigned __int64>
	DD	00H
	DQ	FLAT:??$_Insert_string@DU?$char_traits@D@std@@_K@std@@YAAEAV?$basic_ostream@DU?$char_traits@D@std@@@0@AEAV10@QEBD_K@Z$rtcVarDesc
CONST	ENDS
;	COMDAT xdata
xdata	SEGMENT
$unwind$??$forward@PEAU_Container_base12@std@@@std@@YA$$QEAPEAU_Container_base12@0@AEAPEAU10@@Z DD 025051301H
	DD	010e2313H
	DD	07007001dH
	DD	05006H
xdata	ENDS
;	COMDAT xdata
xdata	SEGMENT
$unwind$??$_Voidify_iter@PEAU_Container_proxy@std@@@std@@YAPEAXPEAU_Container_proxy@0@@Z DD 025051301H
	DD	010e2313H
	DD	07007001dH
	DD	05006H
xdata	ENDS
;	COMDAT xdata
xdata	SEGMENT
$unwind$??$addressof@U_Container_proxy@std@@@std@@YAPEAU_Container_proxy@0@AEAU10@@Z DD 025051301H
	DD	010e2313H
	DD	07007001dH
	DD	05006H
xdata	ENDS
;	COMDAT xdata
xdata	SEGMENT
$unwind$??$_Get_size_of_n@$00@std@@YA_K_K@Z DD 025051301H
	DD	010e2313H
	DD	070070021H
	DD	05006H
xdata	ENDS
;	COMDAT xdata
xdata	SEGMENT
$unwind$??$addressof@$$CBV?$_String_val@U?$_Simple_types@D@std@@@std@@@std@@YAPEBV?$_String_val@U?$_Simple_types@D@std@@@0@AEBV10@@Z DD 025051301H
	DD	010e2313H
	DD	07007001dH
	DD	05006H
xdata	ENDS
;	COMDAT xdata
xdata	SEGMENT
$unwind$??$addressof@V?$_String_val@U?$_Simple_types@D@std@@@std@@@std@@YAPEAV?$_String_val@U?$_Simple_types@D@std@@@0@AEAV10@@Z DD 025051301H
	DD	010e2313H
	DD	07007001dH
	DD	05006H
xdata	ENDS
;	COMDAT xdata
xdata	SEGMENT
$ip2state$??$_Destroy_range@V?$allocator@V?$basic_string@DU?$char_traits@D@std@@V?$allocator@D@2@@std@@@std@@@std@@YAXPEAV?$basic_string@DU?$char_traits@D@std@@V?$allocator@D@2@@0@QEAV10@AEAV?$allocator@V?$basic_string@DU?$char_traits@D@std@@V?$allocator@D@2@@std@@@0@@Z DB 02H
	DB	00H
	DB	00H
xdata	ENDS
;	COMDAT xdata
xdata	SEGMENT
$cppxdata$??$_Destroy_range@V?$allocator@V?$basic_string@DU?$char_traits@D@std@@V?$allocator@D@2@@std@@@std@@@std@@YAXPEAV?$basic_string@DU?$char_traits@D@std@@V?$allocator@D@2@@0@QEAV10@AEAV?$allocator@V?$basic_string@DU?$char_traits@D@std@@V?$allocator@D@2@@std@@@0@@Z DB 060H
	DD	imagerel $ip2state$??$_Destroy_range@V?$allocator@V?$basic_string@DU?$char_traits@D@std@@V?$allocator@D@2@@std@@@std@@@std@@YAXPEAV?$basic_string@DU?$char_traits@D@std@@V?$allocator@D@2@@0@QEAV10@AEAV?$allocator@V?$basic_string@DU?$char_traits@D@std@@V?$allocator@D@2@@std@@@0@@Z
xdata	ENDS
;	COMDAT xdata
xdata	SEGMENT
$unwind$??$_Destroy_range@V?$allocator@V?$basic_string@DU?$char_traits@D@std@@V?$allocator@D@2@@std@@@std@@@std@@YAXPEAV?$basic_string@DU?$char_traits@D@std@@V?$allocator@D@2@@0@QEAV10@AEAV?$allocator@V?$basic_string@DU?$char_traits@D@std@@V?$allocator@D@2@@std@@@0@@Z DD 025051d19H
	DD	0118231dH
	DD	07011001dH
	DD	05010H
	DD	imagerel __CxxFrameHandler4
	DD	imagerel $cppxdata$??$_Destroy_range@V?$allocator@V?$basic_string@DU?$char_traits@D@std@@V?$allocator@D@2@@std@@@std@@@std@@YAXPEAV?$basic_string@DU?$char_traits@D@std@@V?$allocator@D@2@@0@QEAV10@AEAV?$allocator@V?$basic_string@DU?$char_traits@D@std@@V?$allocator@D@2@@std@@@0@@Z
xdata	ENDS
;	COMDAT xdata
xdata	SEGMENT
$unwind$??$_Get_size_of_n@$0DA@@std@@YA_K_K@Z DD 025051301H
	DD	010e2313H
	DD	070070025H
	DD	05006H
xdata	ENDS
;	COMDAT xdata
xdata	SEGMENT
$ip2state$??$_Destroy_range@V?$allocator@Uop@@@std@@@std@@YAXPEAUop@@QEAU1@AEAV?$allocator@Uop@@@0@@Z DB 02H
	DB	00H
	DB	00H
xdata	ENDS
;	COMDAT xdata
xdata	SEGMENT
$cppxdata$??$_Destroy_range@V?$allocator@Uop@@@std@@@std@@YAXPEAUop@@QEAU1@AEAV?$allocator@Uop@@@0@@Z DB 060H
	DD	imagerel $ip2state$??$_Destroy_range@V?$allocator@Uop@@@std@@@std@@YAXPEAUop@@QEAU1@AEAV?$allocator@Uop@@@0@@Z
xdata	ENDS
;	COMDAT xdata
xdata	SEGMENT
$unwind$??$_Destroy_range@V?$allocator@Uop@@@std@@@std@@YAXPEAUop@@QEAU1@AEAV?$allocator@Uop@@@0@@Z DD 025051d19H
	DD	0118231dH
	DD	07011001dH
	DD	05010H
	DD	imagerel __CxxFrameHandler4
	DD	imagerel $cppxdata$??$_Destroy_range@V?$allocator@Uop@@@std@@@std@@YAXPEAUop@@QEAU1@AEAV?$allocator@Uop@@@0@@Z
xdata	ENDS
;	COMDAT xdata
xdata	SEGMENT
$unwind$??$_Destroy_range@V?$allocator@Ubraket_group@@@std@@@std@@YAXPEAUbraket_group@@QEAU1@AEAV?$allocator@Ubraket_group@@@0@@Z DD 025051d01H
	DD	0118231dH
	DD	07011001dH
	DD	05010H
xdata	ENDS
;	COMDAT xdata
xdata	SEGMENT
$ip2state$??$_Deallocate@$0BA@$0A@@std@@YAXPEAX_K@Z DB 02H
	DB	00H
	DB	00H
xdata	ENDS
;	COMDAT xdata
xdata	SEGMENT
$cppxdata$??$_Deallocate@$0BA@$0A@@std@@YAXPEAX_K@Z DB 060H
	DD	imagerel $ip2state$??$_Deallocate@$0BA@$0A@@std@@YAXPEAX_K@Z
xdata	ENDS
;	COMDAT xdata
xdata	SEGMENT
$unwind$??$_Deallocate@$0BA@$0A@@std@@YAXPEAX_K@Z DD 025051819H
	DD	01132318H
	DD	0700c001dH
	DD	0500bH
	DD	imagerel __CxxFrameHandler4
	DD	imagerel $cppxdata$??$_Deallocate@$0BA@$0A@@std@@YAXPEAX_K@Z
xdata	ENDS
;	COMDAT xdata
xdata	SEGMENT
$unwind$??$_Allocate@$0BA@U_Default_allocate_traits@std@@$0A@@std@@YAPEAX_K@Z DD 025051301H
	DD	010e2313H
	DD	07007001dH
	DD	05006H
xdata	ENDS
;	COMDAT xdata
xdata	SEGMENT
$unwind$??$_Get_size_of_n@$0BA@@std@@YA_K_K@Z DD 025051301H
	DD	010e2313H
	DD	070070025H
	DD	05006H
xdata	ENDS
;	COMDAT xdata
xdata	SEGMENT
$unwind$??$max@_K@std@@YAAEB_KAEB_K0@Z DD 025051801H
	DD	01132318H
	DD	0700c0021H
	DD	0500bH
xdata	ENDS
;	COMDAT xdata
xdata	SEGMENT
$unwind$??$?0AEBV?$allocator@D@std@@$$V@?$_Compressed_pair@V?$allocator@D@std@@V?$_String_val@U?$_Simple_types@D@std@@@2@$00@std@@QEAA@U_One_then_variadic_args_t@1@AEBV?$allocator@D@1@@Z DD 025051c01H
	DD	0117231cH
	DD	07010001dH
	DD	0500fH
xdata	ENDS
;	COMDAT xdata
xdata	SEGMENT
$unwind$??$_Pocma@V?$allocator@D@std@@@std@@YAXAEAV?$allocator@D@0@0@Z DD 025051801H
	DD	01132318H
	DD	0700c001dH
	DD	0500bH
xdata	ENDS
;	COMDAT xdata
xdata	SEGMENT
$unwind$??$_Construct_in_place@PEADAEAPEAD@std@@YAXAEAPEAD0@Z DD 025051801H
	DD	01132318H
	DD	0700c0021H
	DD	0500bH
xdata	ENDS
;	COMDAT xdata
xdata	SEGMENT
$unwind$??$_Unfancy@D@std@@YAPEADPEAD@Z DD 025051301H
	DD	010e2313H
	DD	07007001dH
	DD	05006H
xdata	ENDS
;	COMDAT xdata
xdata	SEGMENT
$unwind$??$_Construct_in_place@PEADAEBQEAD@std@@YAXAEAPEADAEBQEAD@Z DD 025051801H
	DD	01132318H
	DD	0700c0021H
	DD	0500bH
xdata	ENDS
;	COMDAT xdata
xdata	SEGMENT
$unwind$??$_Pocca@V?$allocator@D@std@@@std@@YAXAEAV?$allocator@D@0@AEBV10@@Z DD 025051801H
	DD	01132318H
	DD	0700c001dH
	DD	0500bH
xdata	ENDS
;	COMDAT voltbl
voltbl	SEGMENT
_volmd	DW	045H
	DW	022bH
voltbl	ENDS
;	COMDAT xdata
xdata	SEGMENT
$unwind$??$_Reallocate_grow_by@V<lambda_65e615be2a453ca0576c979606f46740>@@PEBD_K@?$basic_string@DU?$char_traits@D@std@@V?$allocator@D@2@@std@@AEAAAEAV01@_KV<lambda_65e615be2a453ca0576c979606f46740>@@PEBD_K@Z DD 035054c19H
	DD	011d3322H
	DD	070160043H
	DD	05015H
	DD	imagerel __GSHandlerCheck
	DD	0208H
xdata	ENDS
;	COMDAT CONST
CONST	SEGMENT
??$_Reallocate_grow_by@V<lambda_65e615be2a453ca0576c979606f46740>@@PEBD_K@?$basic_string@DU?$char_traits@D@std@@V?$allocator@D@2@@std@@AEAAAEAV01@_KV<lambda_65e615be2a453ca0576c979606f46740>@@PEBD_K@Z$rtcName$0 DB 05fH ; std::basic_string<char,std::char_traits<char>,std::allocator<char> >::_Reallocate_grow_by<<lambda_65e615be2a453ca0576c979606f46740>,char const *,unsigned __int64>
	DB	04eH
	DB	065H
	DB	077H
	DB	05fH
	DB	070H
	DB	074H
	DB	072H
	DB	00H
	ORG $+7
??$_Reallocate_grow_by@V<lambda_65e615be2a453ca0576c979606f46740>@@PEBD_K@?$basic_string@DU?$char_traits@D@std@@V?$allocator@D@2@@std@@AEAAAEAV01@_KV<lambda_65e615be2a453ca0576c979606f46740>@@PEBD_K@Z$rtcVarDesc DD 0f8H ; std::basic_string<char,std::char_traits<char>,std::allocator<char> >::_Reallocate_grow_by<<lambda_65e615be2a453ca0576c979606f46740>,char const *,unsigned __int64>
	DD	08H
	DQ	FLAT:??$_Reallocate_grow_by@V<lambda_65e615be2a453ca0576c979606f46740>@@PEBD_K@?$basic_string@DU?$char_traits@D@std@@V?$allocator@D@2@@std@@AEAAAEAV01@_KV<lambda_65e615be2a453ca0576c979606f46740>@@PEBD_K@Z$rtcName$0
	ORG $+48
??$_Reallocate_grow_by@V<lambda_65e615be2a453ca0576c979606f46740>@@PEBD_K@?$basic_string@DU?$char_traits@D@std@@V?$allocator@D@2@@std@@AEAAAEAV01@_KV<lambda_65e615be2a453ca0576c979606f46740>@@PEBD_K@Z$rtcFrameData DD 01H ; std::basic_string<char,std::char_traits<char>,std::allocator<char> >::_Reallocate_grow_by<<lambda_65e615be2a453ca0576c979606f46740>,char const *,unsigned __int64>
	DD	00H
	DQ	FLAT:??$_Reallocate_grow_by@V<lambda_65e615be2a453ca0576c979606f46740>@@PEBD_K@?$basic_string@DU?$char_traits@D@std@@V?$allocator@D@2@@std@@AEAAAEAV01@_KV<lambda_65e615be2a453ca0576c979606f46740>@@PEBD_K@Z$rtcVarDesc
CONST	ENDS
;	COMDAT xdata
xdata	SEGMENT
$unwind$??R<lambda_65e615be2a453ca0576c979606f46740>@@QEBA@QEADQEBD_K12@Z DD 025052201H
	DD	011d2322H
	DD	070160021H
	DD	05015H
xdata	ENDS
;	COMDAT voltbl
voltbl	SEGMENT
_volmd	DW	045H
	DW	018bH
voltbl	ENDS
;	COMDAT xdata
xdata	SEGMENT
$unwind$??$_Reallocate_for@V<lambda_66f57f934f28d61049862f64df852ff0>@@PEBD@?$basic_string@DU?$char_traits@D@std@@V?$allocator@D@2@@std@@AEAAAEAV01@_KV<lambda_66f57f934f28d61049862f64df852ff0>@@PEBD@Z DD 025054c19H
	DD	011d2322H
	DD	07016002dH
	DD	05015H
	DD	imagerel __GSHandlerCheck
	DD	0158H
xdata	ENDS
;	COMDAT CONST
CONST	SEGMENT
??$_Reallocate_for@V<lambda_66f57f934f28d61049862f64df852ff0>@@PEBD@?$basic_string@DU?$char_traits@D@std@@V?$allocator@D@2@@std@@AEAAAEAV01@_KV<lambda_66f57f934f28d61049862f64df852ff0>@@PEBD@Z$rtcName$0 DB 05fH ; std::basic_string<char,std::char_traits<char>,std::allocator<char> >::_Reallocate_for<<lambda_66f57f934f28d61049862f64df852ff0>,char const *>
	DB	04eH
	DB	065H
	DB	077H
	DB	05fH
	DB	070H
	DB	074H
	DB	072H
	DB	00H
	ORG $+7
